
C:/Users/jianu/Downloads/ME344 Advanced Mechatronics/ME433_AdvancedMechatronics/HW6/build/HW6.elf:     file format elf32-littlearm

Sections:
Idx Name          Size      VMA       LMA       File off  Algn
  0 .text         00003dc0  10000000  10000000  00001000  2**3
                  CONTENTS, ALLOC, LOAD, READONLY, CODE
  1 .rodata       0000022c  10003dc0  10003dc0  00004dc0  2**2
                  CONTENTS, ALLOC, LOAD, READONLY, DATA
  2 .ARM.exidx    00000008  10003fec  10003fec  00004fec  2**2
                  CONTENTS, ALLOC, LOAD, READONLY, DATA
  3 .binary_info  00000020  10003ff4  10003ff4  00004ff4  2**2
                  CONTENTS, ALLOC, LOAD, READONLY, DATA
  4 .ram_vector_table 00000110  20000000  20000000  00008000  2**2
                  ALLOC
  5 .uninitialized_data 00000000  20000110  20000110  000070dc  2**0
                  CONTENTS
  6 .data         000010b4  20000110  10004014  00005110  2**3
                  CONTENTS, ALLOC, LOAD, READONLY, CODE
  7 .tdata        00000000  200011c4  200011c4  000070dc  2**0
                  CONTENTS, ALLOC, LOAD, DATA, THREAD_LOCAL
  8 .tbss         00000000  200011c4  200011c4  00000000  2**0
                  ALLOC, THREAD_LOCAL
  9 .bss          0000082c  200011c8  100050c8  000071c8  2**3
                  ALLOC
 10 .heap         00000800  200019f4  100050c8  000079f4  2**2
                  ALLOC, READONLY
 11 .scratch_x    00000000  20080000  20080000  000070dc  2**0
                  CONTENTS
 12 .scratch_y    00000000  20081000  20081000  000070dc  2**0
                  CONTENTS
 13 .stack_dummy  00000800  20081000  20081000  00008000  2**5
                  ALLOC, READONLY
 14 .flash_end    00000014  100050c8  100050c8  000070c8  2**2
                  CONTENTS, ALLOC, LOAD, READONLY, DATA
 15 .ARM.attributes 00000034  00000000  00000000  000070dc  2**0
                  CONTENTS, READONLY
 16 .comment      00000045  00000000  00000000  00007110  2**0
                  CONTENTS, READONLY
 17 .debug_info   0003326b  00000000  00000000  00007155  2**0
                  CONTENTS, READONLY, DEBUGGING, OCTETS
 18 .debug_abbrev 000088f2  00000000  00000000  0003a3c0  2**0
                  CONTENTS, READONLY, DEBUGGING, OCTETS
 19 .debug_loclists 000195ad  00000000  00000000  00042cb2  2**0
                  CONTENTS, READONLY, DEBUGGING, OCTETS
 20 .debug_aranges 00001258  00000000  00000000  0005c260  2**3
                  CONTENTS, READONLY, DEBUGGING, OCTETS
 21 .debug_rnglists 000043fe  00000000  00000000  0005d4b8  2**0
                  CONTENTS, READONLY, DEBUGGING, OCTETS
 22 .debug_line   0002460d  00000000  00000000  000618b6  2**0
                  CONTENTS, READONLY, DEBUGGING, OCTETS
 23 .debug_str    0000a50d  00000000  00000000  00085ec3  2**0
                  CONTENTS, READONLY, DEBUGGING, OCTETS
 24 .debug_frame  000030ac  00000000  00000000  000903d0  2**2
                  CONTENTS, READONLY, DEBUGGING, OCTETS
 25 .debug_line_str 00000330  00000000  00000000  0009347c  2**0
                  CONTENTS, READONLY, DEBUGGING, OCTETS

C:/Users/jianu/Downloads/ME344 Advanced Mechatronics/ME433_AdvancedMechatronics/HW6/build/HW6.elf:     file format elf32-littlearm


Disassembly of section .text:

10000000 <__VECTOR_TABLE>:
10000000:	20082000 	.word	0x20082000
10000004:	1000015d 	.word	0x1000015d
10000008:	1000011b 	.word	0x1000011b
1000000c:	1000011d 	.word	0x1000011d
10000010:	10000111 	.word	0x10000111
10000014:	10000111 	.word	0x10000111
10000018:	10000111 	.word	0x10000111
1000001c:	10000111 	.word	0x10000111
10000020:	10000119 	.word	0x10000119
10000024:	10000119 	.word	0x10000119
10000028:	10000119 	.word	0x10000119
1000002c:	1000011f 	.word	0x1000011f
10000030:	10000111 	.word	0x10000111
10000034:	10000119 	.word	0x10000119
10000038:	10000121 	.word	0x10000121
1000003c:	10000123 	.word	0x10000123
10000040:	10000111 	.word	0x10000111
10000044:	10000111 	.word	0x10000111
10000048:	10000111 	.word	0x10000111
1000004c:	10000111 	.word	0x10000111
10000050:	10000111 	.word	0x10000111
10000054:	10000111 	.word	0x10000111
10000058:	10000111 	.word	0x10000111
1000005c:	10000111 	.word	0x10000111
10000060:	10000111 	.word	0x10000111
10000064:	10000111 	.word	0x10000111
10000068:	10000111 	.word	0x10000111
1000006c:	10000111 	.word	0x10000111
10000070:	10000111 	.word	0x10000111
10000074:	10000111 	.word	0x10000111
10000078:	10000111 	.word	0x10000111
1000007c:	10000111 	.word	0x10000111
10000080:	10000111 	.word	0x10000111
10000084:	10000111 	.word	0x10000111
10000088:	10000111 	.word	0x10000111
1000008c:	10000111 	.word	0x10000111
10000090:	10000111 	.word	0x10000111
10000094:	10000111 	.word	0x10000111
10000098:	10000111 	.word	0x10000111
1000009c:	10000111 	.word	0x10000111
100000a0:	10000111 	.word	0x10000111
100000a4:	10000111 	.word	0x10000111
100000a8:	10000111 	.word	0x10000111
100000ac:	10000111 	.word	0x10000111
100000b0:	10000111 	.word	0x10000111
100000b4:	10000111 	.word	0x10000111
100000b8:	10000111 	.word	0x10000111
100000bc:	10000111 	.word	0x10000111
100000c0:	10000111 	.word	0x10000111
100000c4:	10000111 	.word	0x10000111
100000c8:	10000111 	.word	0x10000111
100000cc:	10000111 	.word	0x10000111
100000d0:	10000111 	.word	0x10000111
100000d4:	10000111 	.word	0x10000111
100000d8:	10000111 	.word	0x10000111
100000dc:	10000111 	.word	0x10000111
100000e0:	10000111 	.word	0x10000111
100000e4:	10000111 	.word	0x10000111
100000e8:	10000111 	.word	0x10000111
100000ec:	10000111 	.word	0x10000111
100000f0:	10000111 	.word	0x10000111
100000f4:	10000111 	.word	0x10000111
100000f8:	10000111 	.word	0x10000111
100000fc:	10000111 	.word	0x10000111
10000100:	10000111 	.word	0x10000111
10000104:	10000111 	.word	0x10000111
10000108:	10000111 	.word	0x10000111
1000010c:	10000111 	.word	0x10000111

10000110 <__unhandled_user_irq>:
10000110:	f3ef 8005 	mrs	r0, IPSR
10000114:	3810      	subs	r0, #16

10000116 <unhandled_user_irq_num_in_r0>:
10000116:	be00      	bkpt	0x0000

10000118 <isr_invalid>:
10000118:	be00      	bkpt	0x0000

1000011a <isr_nmi>:
1000011a:	be00      	bkpt	0x0000

1000011c <isr_hardfault>:
1000011c:	be00      	bkpt	0x0000

1000011e <isr_svcall>:
1000011e:	be00      	bkpt	0x0000

10000120 <isr_pendsv>:
10000120:	be00      	bkpt	0x0000

10000122 <isr_systick>:
10000122:	be00      	bkpt	0x0000

10000124 <__default_isrs_end>:
10000124:	7188ebf2 	.word	0x7188ebf2
10000128:	10003ff4 	.word	0x10003ff4
1000012c:	10004014 	.word	0x10004014
10000130:	100001a0 	.word	0x100001a0
10000134:	e71aa390 	.word	0xe71aa390

10000138 <__binary_info_header_end>:
10000138:	ffffded3 	.word	0xffffded3
1000013c:	10210142 	.word	0x10210142
10000140:	000001ff 	.word	0x000001ff
10000144:	00004f90 	.word	0x00004f90
10000148:	ab123579 	.word	0xab123579

1000014c <_entry_point>:
1000014c:	f04f 0000 	mov.w	r0, #0

10000150 <_enter_vtable_in_r0>:
10000150:	491e      	ldr	r1, [pc, #120]	@ (100001cc <data_cpy_table+0x2c>)
10000152:	6008      	str	r0, [r1, #0]
10000154:	c806      	ldmia	r0!, {r1, r2}
10000156:	f381 8808 	msr	MSP, r1
1000015a:	4710      	bx	r2

1000015c <_reset_handler>:
1000015c:	f04f 4050 	mov.w	r0, #3489660928	@ 0xd0000000
10000160:	6800      	ldr	r0, [r0, #0]
10000162:	b110      	cbz	r0, 1000016a <hold_non_core0_in_bootrom+0x6>

10000164 <hold_non_core0_in_bootrom>:
10000164:	f04f 0000 	mov.w	r0, #0
10000168:	e7f2      	b.n	10000150 <_enter_vtable_in_r0>
1000016a:	a40d      	add	r4, pc, #52	@ (adr r4, 100001a0 <data_cpy_table>)
1000016c:	cc0e      	ldmia	r4!, {r1, r2, r3}
1000016e:	2900      	cmp	r1, #0
10000170:	d002      	beq.n	10000178 <hold_non_core0_in_bootrom+0x14>
10000172:	f000 f812 	bl	1000019a <data_cpy>
10000176:	e7f9      	b.n	1000016c <hold_non_core0_in_bootrom+0x8>
10000178:	4915      	ldr	r1, [pc, #84]	@ (100001d0 <data_cpy_table+0x30>)
1000017a:	4a16      	ldr	r2, [pc, #88]	@ (100001d4 <data_cpy_table+0x34>)
1000017c:	2000      	movs	r0, #0
1000017e:	e000      	b.n	10000182 <bss_fill_test>

10000180 <bss_fill_loop>:
10000180:	c101      	stmia	r1!, {r0}

10000182 <bss_fill_test>:
10000182:	4291      	cmp	r1, r2
10000184:	d1fc      	bne.n	10000180 <bss_fill_loop>

10000186 <platform_entry>:
10000186:	4914      	ldr	r1, [pc, #80]	@ (100001d8 <data_cpy_table+0x38>)
10000188:	4788      	blx	r1
1000018a:	4914      	ldr	r1, [pc, #80]	@ (100001dc <data_cpy_table+0x3c>)
1000018c:	4788      	blx	r1
1000018e:	4914      	ldr	r1, [pc, #80]	@ (100001e0 <data_cpy_table+0x40>)
10000190:	4788      	blx	r1
10000192:	be00      	bkpt	0x0000
10000194:	e7fd      	b.n	10000192 <platform_entry+0xc>

10000196 <data_cpy_loop>:
10000196:	c901      	ldmia	r1!, {r0}
10000198:	c201      	stmia	r2!, {r0}

1000019a <data_cpy>:
1000019a:	429a      	cmp	r2, r3
1000019c:	d3fb      	bcc.n	10000196 <data_cpy_loop>
1000019e:	4770      	bx	lr

100001a0 <data_cpy_table>:
100001a0:	10004014 	.word	0x10004014
100001a4:	20000110 	.word	0x20000110
100001a8:	200011c4 	.word	0x200011c4
100001ac:	100050c8 	.word	0x100050c8
100001b0:	20080000 	.word	0x20080000
100001b4:	20080000 	.word	0x20080000
100001b8:	100050c8 	.word	0x100050c8
100001bc:	20081000 	.word	0x20081000
100001c0:	20081000 	.word	0x20081000
100001c4:	00000000 	.word	0x00000000
100001c8:	4770      	bx	lr
100001ca:	0000      	.short	0x0000
100001cc:	e000ed08 	.word	0xe000ed08
100001d0:	200011c4 	.word	0x200011c4
100001d4:	200019f4 	.word	0x200019f4
100001d8:	10002001 	.word	0x10002001
100001dc:	10000235 	.word	0x10000235
100001e0:	10001ff9 	.word	0x10001ff9

100001e4 <_init>:
100001e4:	b5f8      	push	{r3, r4, r5, r6, r7, lr}
100001e6:	bf00      	nop

100001e8 <register_tm_clones>:
100001e8:	4b06      	ldr	r3, [pc, #24]	@ (10000204 <register_tm_clones+0x1c>)
100001ea:	4907      	ldr	r1, [pc, #28]	@ (10000208 <register_tm_clones+0x20>)
100001ec:	1ac9      	subs	r1, r1, r3
100001ee:	1089      	asrs	r1, r1, #2
100001f0:	bf48      	it	mi
100001f2:	3101      	addmi	r1, #1
100001f4:	1049      	asrs	r1, r1, #1
100001f6:	d003      	beq.n	10000200 <register_tm_clones+0x18>
100001f8:	4b04      	ldr	r3, [pc, #16]	@ (1000020c <register_tm_clones+0x24>)
100001fa:	b10b      	cbz	r3, 10000200 <register_tm_clones+0x18>
100001fc:	4801      	ldr	r0, [pc, #4]	@ (10000204 <register_tm_clones+0x1c>)
100001fe:	4718      	bx	r3
10000200:	4770      	bx	lr
10000202:	bf00      	nop
10000204:	200011c4 	.word	0x200011c4
10000208:	200011c4 	.word	0x200011c4
1000020c:	00000000 	.word	0x00000000

10000210 <frame_dummy>:
10000210:	b508      	push	{r3, lr}
10000212:	4b05      	ldr	r3, [pc, #20]	@ (10000228 <frame_dummy+0x18>)
10000214:	b11b      	cbz	r3, 1000021e <frame_dummy+0xe>
10000216:	4905      	ldr	r1, [pc, #20]	@ (1000022c <frame_dummy+0x1c>)
10000218:	4805      	ldr	r0, [pc, #20]	@ (10000230 <frame_dummy+0x20>)
1000021a:	f3af 8000 	nop.w
1000021e:	e8bd 4008 	ldmia.w	sp!, {r3, lr}
10000222:	f7ff bfe1 	b.w	100001e8 <register_tm_clones>
10000226:	bf00      	nop
10000228:	00000000 	.word	0x00000000
1000022c:	200019ac 	.word	0x200019ac
10000230:	10003dc0 	.word	0x10003dc0

10000234 <main>:
10000234:	e92d 47f0 	stmdb	sp!, {r4, r5, r6, r7, r8, r9, sl, lr}
10000238:	ed2d 8b02 	vpush	{d8}
1000023c:	494f      	ldr	r1, [pc, #316]	@ (1000037c <main+0x148>)
1000023e:	b086      	sub	sp, #24
10000240:	484f      	ldr	r0, [pc, #316]	@ (10000380 <main+0x14c>)
10000242:	f002 f8f9 	bl	10002438 <i2c_init>
10000246:	2103      	movs	r1, #3
10000248:	2004      	movs	r0, #4
1000024a:	f000 f9b5 	bl	100005b8 <gpio_set_function>
1000024e:	2103      	movs	r1, #3
10000250:	2005      	movs	r0, #5
10000252:	f000 f9b1 	bl	100005b8 <gpio_set_function>
10000256:	2200      	movs	r2, #0
10000258:	2101      	movs	r1, #1
1000025a:	2004      	movs	r0, #4
1000025c:	f000 f9ca 	bl	100005f4 <gpio_set_pulls>
10000260:	2200      	movs	r2, #0
10000262:	2101      	movs	r1, #1
10000264:	2005      	movs	r0, #5
10000266:	f000 f9c5 	bl	100005f4 <gpio_set_pulls>
1000026a:	f000 f891 	bl	10000390 <mpu6050_init>
1000026e:	200f      	movs	r0, #15
10000270:	f000 f9d4 	bl	1000061c <gpio_init>
10000274:	230f      	movs	r3, #15
10000276:	f04f 0201 	mov.w	r2, #1
1000027a:	ec42 3044 	gpioc_bit_oe_put r3, r2
1000027e:	200e      	movs	r0, #14
10000280:	f000 f9cc 	bl	1000061c <gpio_init>
10000284:	200e      	movs	r0, #14
10000286:	f04f 0300 	mov.w	r3, #0
1000028a:	ec43 0044 	gpioc_bit_oe_put r0, r3
1000028e:	2200      	movs	r2, #0
10000290:	2101      	movs	r1, #1
10000292:	f000 f9af 	bl	100005f4 <gpio_set_pulls>
10000296:	2100      	movs	r1, #0
10000298:	f04f 0800 	mov.w	r8, #0
1000029c:	4608      	mov	r0, r1
1000029e:	f003 fab1 	bl	10003804 <tusb_rhport_init>
100002a2:	ed9f 8a38 	vldr	s16, [pc, #224]	@ 10000384 <main+0x150>
100002a6:	2401      	movs	r4, #1
100002a8:	eddf 8a37 	vldr	s17, [pc, #220]	@ 10000388 <main+0x154>
100002ac:	46c2      	mov	sl, r8
100002ae:	2600      	movs	r6, #0
100002b0:	4f36      	ldr	r7, [pc, #216]	@ (1000038c <main+0x158>)
100002b2:	2100      	movs	r1, #0
100002b4:	f04f 30ff 	mov.w	r0, #4294967295
100002b8:	f002 fb48 	bl	1000294c <tud_task_ext>
100002bc:	f04f 4350 	mov.w	r3, #3489660928	@ 0xd0000000
100002c0:	685b      	ldr	r3, [r3, #4]
100002c2:	f3c3 3980 	ubfx	r9, r3, #14, #1
100002c6:	045b      	lsls	r3, r3, #17
100002c8:	d405      	bmi.n	100002d6 <main+0xa2>
100002ca:	b124      	cbz	r4, 100002d6 <main+0xa2>
100002cc:	f088 0801 	eor.w	r8, r8, #1
100002d0:	230f      	movs	r3, #15
100002d2:	ec48 3040 	gpioc_bit_out_put r3, r8
100002d6:	f1b8 0f00 	cmp.w	r8, #0
100002da:	d02f      	beq.n	1000033c <main+0x108>
100002dc:	ee18 0a10 	vmov	r0, s16
100002e0:	f003 fd2e 	bl	10003d40 <____aeabi_f2d_veneer>
100002e4:	4604      	mov	r4, r0
100002e6:	460d      	mov	r5, r1
100002e8:	f001 fbff 	bl	10001aea <__wrap_cos>
100002ec:	4632      	mov	r2, r6
100002ee:	463b      	mov	r3, r7
100002f0:	f001 fa68 	bl	100017c4 <__wrap___aeabi_dmul>
100002f4:	f001 fa8c 	bl	10001810 <__wrap___aeabi_d2iz>
100002f8:	4603      	mov	r3, r0
100002fa:	4629      	mov	r1, r5
100002fc:	4620      	mov	r0, r4
100002fe:	461d      	mov	r5, r3
10000300:	f001 fbee 	bl	10001ae0 <__wrap_sin>
10000304:	4632      	mov	r2, r6
10000306:	463b      	mov	r3, r7
10000308:	f001 fa5c 	bl	100017c4 <__wrap___aeabi_dmul>
1000030c:	f001 fa80 	bl	10001810 <__wrap___aeabi_d2iz>
10000310:	ee38 8a28 	vadd.f32	s16, s16, s17
10000314:	4604      	mov	r4, r0
10000316:	2000      	movs	r0, #0
10000318:	f003 f882 	bl	10003420 <tud_hid_n_ready>
1000031c:	b148      	cbz	r0, 10000332 <main+0xfe>
1000031e:	2200      	movs	r2, #0
10000320:	b264      	sxtb	r4, r4
10000322:	2101      	movs	r1, #1
10000324:	4610      	mov	r0, r2
10000326:	e9cd aa01 	strd	sl, sl, [sp, #4]
1000032a:	9400      	str	r4, [sp, #0]
1000032c:	b26b      	sxtb	r3, r5
1000032e:	f003 f893 	bl	10003458 <tud_hid_n_mouse_report>
10000332:	200a      	movs	r0, #10
10000334:	f000 ff04 	bl	10001140 <sleep_ms>
10000338:	464c      	mov	r4, r9
1000033a:	e7ba      	b.n	100002b2 <main+0x7e>
1000033c:	f10d 0216 	add.w	r2, sp, #22
10000340:	a905      	add	r1, sp, #20
10000342:	f10d 0012 	add.w	r0, sp, #18
10000346:	f000 f863 	bl	10000410 <mpu6050_read_accel>
1000034a:	b910      	cbnz	r0, 10000352 <main+0x11e>
1000034c:	4644      	mov	r4, r8
1000034e:	4645      	mov	r5, r8
10000350:	e7e1      	b.n	10000316 <main+0xe2>
10000352:	f9bd 0012 	ldrsh.w	r0, [sp, #18]
10000356:	f000 f885 	bl	10000464 <accel_to_speed>
1000035a:	4605      	mov	r5, r0
1000035c:	f9bd 0014 	ldrsh.w	r0, [sp, #20]
10000360:	f000 f880 	bl	10000464 <accel_to_speed>
10000364:	f9bd 3012 	ldrsh.w	r3, [sp, #18]
10000368:	4604      	mov	r4, r0
1000036a:	2b00      	cmp	r3, #0
1000036c:	f9bd 3014 	ldrsh.w	r3, [sp, #20]
10000370:	bfb8      	it	lt
10000372:	426d      	neglt	r5, r5
10000374:	2b00      	cmp	r3, #0
10000376:	dace      	bge.n	10000316 <main+0xe2>
10000378:	4244      	negs	r4, r0
1000037a:	e7cc      	b.n	10000316 <main+0xe2>
1000037c:	00061a80 	.word	0x00061a80
10000380:	20001194 	.word	0x20001194
10000384:	00000000 	.word	0x00000000
10000388:	3d4ccccd 	.word	0x3d4ccccd
1000038c:	40080000 	.word	0x40080000

10000390 <mpu6050_init>:
10000390:	b530      	push	{r4, r5, lr}
10000392:	2064      	movs	r0, #100	@ 0x64
10000394:	b085      	sub	sp, #20
10000396:	f000 fed3 	bl	10001140 <sleep_ms>
1000039a:	2501      	movs	r5, #1
1000039c:	2275      	movs	r2, #117	@ 0x75
1000039e:	2400      	movs	r4, #0
100003a0:	462b      	mov	r3, r5
100003a2:	9500      	str	r5, [sp, #0]
100003a4:	f88d 200b 	strb.w	r2, [sp, #11]
100003a8:	2168      	movs	r1, #104	@ 0x68
100003aa:	f10d 020b 	add.w	r2, sp, #11
100003ae:	4817      	ldr	r0, [pc, #92]	@ (1000040c <mpu6050_init+0x7c>)
100003b0:	f88d 400a 	strb.w	r4, [sp, #10]
100003b4:	f002 f866 	bl	10002484 <i2c_write_blocking>
100003b8:	462b      	mov	r3, r5
100003ba:	f10d 020a 	add.w	r2, sp, #10
100003be:	2168      	movs	r1, #104	@ 0x68
100003c0:	9400      	str	r4, [sp, #0]
100003c2:	4812      	ldr	r0, [pc, #72]	@ (1000040c <mpu6050_init+0x7c>)
100003c4:	f002 f866 	bl	10002494 <i2c_read_blocking>
100003c8:	226b      	movs	r2, #107	@ 0x6b
100003ca:	2302      	movs	r3, #2
100003cc:	f8ad 200c 	strh.w	r2, [sp, #12]
100003d0:	2168      	movs	r1, #104	@ 0x68
100003d2:	aa03      	add	r2, sp, #12
100003d4:	9400      	str	r4, [sp, #0]
100003d6:	480d      	ldr	r0, [pc, #52]	@ (1000040c <mpu6050_init+0x7c>)
100003d8:	f002 f854 	bl	10002484 <i2c_write_blocking>
100003dc:	221c      	movs	r2, #28
100003de:	f641 051b 	movw	r5, #6171	@ 0x181b
100003e2:	f8ad 200c 	strh.w	r2, [sp, #12]
100003e6:	2302      	movs	r3, #2
100003e8:	aa03      	add	r2, sp, #12
100003ea:	2168      	movs	r1, #104	@ 0x68
100003ec:	9400      	str	r4, [sp, #0]
100003ee:	4807      	ldr	r0, [pc, #28]	@ (1000040c <mpu6050_init+0x7c>)
100003f0:	f002 f848 	bl	10002484 <i2c_write_blocking>
100003f4:	2302      	movs	r3, #2
100003f6:	2168      	movs	r1, #104	@ 0x68
100003f8:	aa03      	add	r2, sp, #12
100003fa:	9400      	str	r4, [sp, #0]
100003fc:	4803      	ldr	r0, [pc, #12]	@ (1000040c <mpu6050_init+0x7c>)
100003fe:	f8ad 500c 	strh.w	r5, [sp, #12]
10000402:	f002 f83f 	bl	10002484 <i2c_write_blocking>
10000406:	b005      	add	sp, #20
10000408:	bd30      	pop	{r4, r5, pc}
1000040a:	bf00      	nop
1000040c:	20001194 	.word	0x20001194

10000410 <mpu6050_read_accel>:
10000410:	b5f0      	push	{r4, r5, r6, r7, lr}
10000412:	233b      	movs	r3, #59	@ 0x3b
10000414:	2701      	movs	r7, #1
10000416:	b089      	sub	sp, #36	@ 0x24
10000418:	4606      	mov	r6, r0
1000041a:	460d      	mov	r5, r1
1000041c:	4614      	mov	r4, r2
1000041e:	f88d 300f 	strb.w	r3, [sp, #15]
10000422:	f10d 020f 	add.w	r2, sp, #15
10000426:	463b      	mov	r3, r7
10000428:	2168      	movs	r1, #104	@ 0x68
1000042a:	9700      	str	r7, [sp, #0]
1000042c:	480c      	ldr	r0, [pc, #48]	@ (10000460 <mpu6050_read_accel+0x50>)
1000042e:	f002 f829 	bl	10002484 <i2c_write_blocking>
10000432:	2300      	movs	r3, #0
10000434:	aa04      	add	r2, sp, #16
10000436:	9300      	str	r3, [sp, #0]
10000438:	2168      	movs	r1, #104	@ 0x68
1000043a:	230e      	movs	r3, #14
1000043c:	4808      	ldr	r0, [pc, #32]	@ (10000460 <mpu6050_read_accel+0x50>)
1000043e:	f002 f829 	bl	10002494 <i2c_read_blocking>
10000442:	4638      	mov	r0, r7
10000444:	f8bd 3010 	ldrh.w	r3, [sp, #16]
10000448:	f8bd 2012 	ldrh.w	r2, [sp, #18]
1000044c:	ba5b      	rev16	r3, r3
1000044e:	8033      	strh	r3, [r6, #0]
10000450:	f8bd 3014 	ldrh.w	r3, [sp, #20]
10000454:	ba52      	rev16	r2, r2
10000456:	ba5b      	rev16	r3, r3
10000458:	802a      	strh	r2, [r5, #0]
1000045a:	8023      	strh	r3, [r4, #0]
1000045c:	b009      	add	sp, #36	@ 0x24
1000045e:	bdf0      	pop	{r4, r5, r6, r7, pc}
10000460:	20001194 	.word	0x20001194

10000464 <accel_to_speed>:
10000464:	2800      	cmp	r0, #0
10000466:	bfb8      	it	lt
10000468:	4240      	neglt	r0, r0
1000046a:	b200      	sxth	r0, r0
1000046c:	f5b0 7f7a 	cmp.w	r0, #1000	@ 0x3e8
10000470:	db0b      	blt.n	1000048a <accel_to_speed+0x26>
10000472:	f5b0 6f7a 	cmp.w	r0, #4000	@ 0xfa0
10000476:	db06      	blt.n	10000486 <accel_to_speed+0x22>
10000478:	f242 730f 	movw	r3, #9999	@ 0x270f
1000047c:	4298      	cmp	r0, r3
1000047e:	bfcc      	ite	gt
10000480:	2005      	movgt	r0, #5
10000482:	2003      	movle	r0, #3
10000484:	4770      	bx	lr
10000486:	2001      	movs	r0, #1
10000488:	4770      	bx	lr
1000048a:	2000      	movs	r0, #0
1000048c:	4770      	bx	lr
1000048e:	bf00      	nop

10000490 <tud_descriptor_device_cb>:
10000490:	4800      	ldr	r0, [pc, #0]	@ (10000494 <tud_descriptor_device_cb+0x4>)
10000492:	4770      	bx	lr
10000494:	10003f58 	.word	0x10003f58

10000498 <tud_hid_descriptor_report_cb>:
10000498:	4800      	ldr	r0, [pc, #0]	@ (1000049c <tud_hid_descriptor_report_cb+0x4>)
1000049a:	4770      	bx	lr
1000049c:	10003f08 	.word	0x10003f08

100004a0 <tud_descriptor_configuration_cb>:
100004a0:	4800      	ldr	r0, [pc, #0]	@ (100004a4 <tud_descriptor_configuration_cb+0x4>)
100004a2:	4770      	bx	lr
100004a4:	10003ee4 	.word	0x10003ee4

100004a8 <tud_descriptor_string_cb>:
100004a8:	e92d 43f0 	stmdb	sp!, {r4, r5, r6, r7, r8, r9, lr}
100004ac:	b089      	sub	sp, #36	@ 0x24
100004ae:	2800      	cmp	r0, #0
100004b0:	d056      	beq.n	10000560 <tud_descriptor_string_cb+0xb8>
100004b2:	2803      	cmp	r0, #3
100004b4:	d020      	beq.n	100004f8 <tud_descriptor_string_cb+0x50>
100004b6:	d86b      	bhi.n	10000590 <tud_descriptor_string_cb+0xe8>
100004b8:	4b39      	ldr	r3, [pc, #228]	@ (100005a0 <tud_descriptor_string_cb+0xf8>)
100004ba:	4e3a      	ldr	r6, [pc, #232]	@ (100005a4 <tud_descriptor_string_cb+0xfc>)
100004bc:	f853 4020 	ldr.w	r4, [r3, r0, lsl #2]
100004c0:	4620      	mov	r0, r4
100004c2:	f003 fc05 	bl	10003cd0 <strlen>
100004c6:	2820      	cmp	r0, #32
100004c8:	4605      	mov	r5, r0
100004ca:	bf28      	it	cs
100004cc:	2520      	movcs	r5, #32
100004ce:	b150      	cbz	r0, 100004e6 <tud_descriptor_string_cb+0x3e>
100004d0:	4631      	mov	r1, r6
100004d2:	1e62      	subs	r2, r4, #1
100004d4:	4613      	mov	r3, r2
100004d6:	3302      	adds	r3, #2
100004d8:	f812 0f01 	ldrb.w	r0, [r2, #1]!
100004dc:	1b1b      	subs	r3, r3, r4
100004de:	429d      	cmp	r5, r3
100004e0:	f821 0f02 	strh.w	r0, [r1, #2]!
100004e4:	d8f6      	bhi.n	100004d4 <tud_descriptor_string_cb+0x2c>
100004e6:	f105 0801 	add.w	r8, r5, #1
100004ea:	ea4f 0848 	mov.w	r8, r8, lsl #1
100004ee:	f448 7840 	orr.w	r8, r8, #768	@ 0x300
100004f2:	fa1f f888 	uxth.w	r8, r8
100004f6:	e03a      	b.n	1000056e <tud_descriptor_string_cb+0xc6>
100004f8:	4b2b      	ldr	r3, [pc, #172]	@ (100005a8 <tud_descriptor_string_cb+0x100>)
100004fa:	2b00      	cmp	r3, #0
100004fc:	d03d      	beq.n	1000057a <tud_descriptor_string_cb+0xd2>
100004fe:	2110      	movs	r1, #16
10000500:	4668      	mov	r0, sp
10000502:	f003 faef 	bl	10003ae4 <board_get_unique_id>
10000506:	2810      	cmp	r0, #16
10000508:	4681      	mov	r9, r0
1000050a:	bf28      	it	cs
1000050c:	f04f 0910 	movcs.w	r9, #16
10000510:	ea4f 0889 	mov.w	r8, r9, lsl #2
10000514:	f108 0802 	add.w	r8, r8, #2
10000518:	f448 7840 	orr.w	r8, r8, #768	@ 0x300
1000051c:	466f      	mov	r7, sp
1000051e:	fa1f f888 	uxth.w	r8, r8
10000522:	2800      	cmp	r0, #0
10000524:	d036      	beq.n	10000594 <tud_descriptor_string_cb+0xec>
10000526:	4e1f      	ldr	r6, [pc, #124]	@ (100005a4 <tud_descriptor_string_cb+0xfc>)
10000528:	4c20      	ldr	r4, [pc, #128]	@ (100005ac <tud_descriptor_string_cb+0x104>)
1000052a:	4635      	mov	r5, r6
1000052c:	f10d 0c10 	add.w	ip, sp, #16
10000530:	44b9      	add	r9, r7
10000532:	e894 000f 	ldmia.w	r4, {r0, r1, r2, r3}
10000536:	e88c 000f 	stmia.w	ip, {r0, r1, r2, r3}
1000053a:	f817 3b01 	ldrb.w	r3, [r7], #1
1000053e:	a908      	add	r1, sp, #32
10000540:	f003 020f 	and.w	r2, r3, #15
10000544:	446a      	add	r2, sp
10000546:	7c12      	ldrb	r2, [r2, #16]
10000548:	eb01 1e13 	add.w	lr, r1, r3, lsr #4
1000054c:	f81e 3c10 	ldrb.w	r3, [lr, #-16]
10000550:	80aa      	strh	r2, [r5, #4]
10000552:	45b9      	cmp	r9, r7
10000554:	f105 0504 	add.w	r5, r5, #4
10000558:	f825 3c02 	strh.w	r3, [r5, #-2]
1000055c:	d1e9      	bne.n	10000532 <tud_descriptor_string_cb+0x8a>
1000055e:	e006      	b.n	1000056e <tud_descriptor_string_cb+0xc6>
10000560:	f44f 7841 	mov.w	r8, #772	@ 0x304
10000564:	4b0e      	ldr	r3, [pc, #56]	@ (100005a0 <tud_descriptor_string_cb+0xf8>)
10000566:	4e0f      	ldr	r6, [pc, #60]	@ (100005a4 <tud_descriptor_string_cb+0xfc>)
10000568:	681b      	ldr	r3, [r3, #0]
1000056a:	881b      	ldrh	r3, [r3, #0]
1000056c:	8073      	strh	r3, [r6, #2]
1000056e:	480d      	ldr	r0, [pc, #52]	@ (100005a4 <tud_descriptor_string_cb+0xfc>)
10000570:	f8a6 8000 	strh.w	r8, [r6]
10000574:	b009      	add	sp, #36	@ 0x24
10000576:	e8bd 83f0 	ldmia.w	sp!, {r4, r5, r6, r7, r8, r9, pc}
1000057a:	a307      	add	r3, pc, #28	@ (adr r3, 10000598 <tud_descriptor_string_cb+0xf0>)
1000057c:	e9d3 2300 	ldrd	r2, r3, [r3]
10000580:	f240 3822 	movw	r8, #802	@ 0x322
10000584:	f04f 0908 	mov.w	r9, #8
10000588:	466f      	mov	r7, sp
1000058a:	e9cd 2300 	strd	r2, r3, [sp]
1000058e:	e7ca      	b.n	10000526 <tud_descriptor_string_cb+0x7e>
10000590:	2000      	movs	r0, #0
10000592:	e7ef      	b.n	10000574 <tud_descriptor_string_cb+0xcc>
10000594:	4e03      	ldr	r6, [pc, #12]	@ (100005a4 <tud_descriptor_string_cb+0xfc>)
10000596:	e7ea      	b.n	1000056e <tud_descriptor_string_cb+0xc6>
10000598:	67452301 	.word	0x67452301
1000059c:	efcdab89 	.word	0xefcdab89
100005a0:	20001120 	.word	0x20001120
100005a4:	200013a0 	.word	0x200013a0
100005a8:	10003ae5 	.word	0x10003ae5
100005ac:	10003dc0 	.word	0x10003dc0

100005b0 <tud_hid_get_report_cb>:
100005b0:	2000      	movs	r0, #0
100005b2:	4770      	bx	lr

100005b4 <tud_hid_set_report_cb>:
100005b4:	4770      	bx	lr
100005b6:	bf00      	nop

100005b8 <gpio_set_function>:
100005b8:	b410      	push	{r4}
100005ba:	f44f 7480 	mov.w	r4, #256	@ 0x100
100005be:	4b0c      	ldr	r3, [pc, #48]	@ (100005f0 <gpio_set_function+0x38>)
100005c0:	f853 2020 	ldr.w	r2, [r3, r0, lsl #2]
100005c4:	eb03 0380 	add.w	r3, r3, r0, lsl #2
100005c8:	00c0      	lsls	r0, r0, #3
100005ca:	f082 0240 	eor.w	r2, r2, #64	@ 0x40
100005ce:	f100 4080 	add.w	r0, r0, #1073741824	@ 0x40000000
100005d2:	f503 5c80 	add.w	ip, r3, #4096	@ 0x1000
100005d6:	f002 02c0 	and.w	r2, r2, #192	@ 0xc0
100005da:	f500 3020 	add.w	r0, r0, #163840	@ 0x28000
100005de:	f503 5340 	add.w	r3, r3, #12288	@ 0x3000
100005e2:	f8cc 2000 	str.w	r2, [ip]
100005e6:	6041      	str	r1, [r0, #4]
100005e8:	601c      	str	r4, [r3, #0]
100005ea:	f85d 4b04 	ldr.w	r4, [sp], #4
100005ee:	4770      	bx	lr
100005f0:	40038004 	.word	0x40038004

100005f4 <gpio_set_pulls>:
100005f4:	b410      	push	{r4}
100005f6:	4c08      	ldr	r4, [pc, #32]	@ (10000618 <gpio_set_pulls+0x24>)
100005f8:	00c9      	lsls	r1, r1, #3
100005fa:	ea41 0182 	orr.w	r1, r1, r2, lsl #2
100005fe:	f854 2020 	ldr.w	r2, [r4, r0, lsl #2]
10000602:	eb04 0380 	add.w	r3, r4, r0, lsl #2
10000606:	4051      	eors	r1, r2
10000608:	f503 5380 	add.w	r3, r3, #4096	@ 0x1000
1000060c:	f001 010c 	and.w	r1, r1, #12
10000610:	f85d 4b04 	ldr.w	r4, [sp], #4
10000614:	6019      	str	r1, [r3, #0]
10000616:	4770      	bx	lr
10000618:	40038004 	.word	0x40038004

1000061c <gpio_init>:
1000061c:	b430      	push	{r4, r5}
1000061e:	f04f 0300 	mov.w	r3, #0
10000622:	ec43 0044 	gpioc_bit_oe_put r0, r3
10000626:	ec43 0040 	gpioc_bit_out_put r0, r3
1000062a:	2505      	movs	r5, #5
1000062c:	f44f 7480 	mov.w	r4, #256	@ 0x100
10000630:	4b0b      	ldr	r3, [pc, #44]	@ (10000660 <gpio_init+0x44>)
10000632:	00c2      	lsls	r2, r0, #3
10000634:	f853 1020 	ldr.w	r1, [r3, r0, lsl #2]
10000638:	eb03 0080 	add.w	r0, r3, r0, lsl #2
1000063c:	f081 0140 	eor.w	r1, r1, #64	@ 0x40
10000640:	f102 4380 	add.w	r3, r2, #1073741824	@ 0x40000000
10000644:	f503 3320 	add.w	r3, r3, #163840	@ 0x28000
10000648:	f001 02c0 	and.w	r2, r1, #192	@ 0xc0
1000064c:	f500 5180 	add.w	r1, r0, #4096	@ 0x1000
10000650:	f500 5040 	add.w	r0, r0, #12288	@ 0x3000
10000654:	600a      	str	r2, [r1, #0]
10000656:	605d      	str	r5, [r3, #4]
10000658:	6004      	str	r4, [r0, #0]
1000065a:	bc30      	pop	{r4, r5}
1000065c:	4770      	bx	lr
1000065e:	bf00      	nop
10000660:	40038004 	.word	0x40038004

10000664 <panic>:
10000664:	b40f      	push	{r0, r1, r2, r3}
10000666:	b500      	push	{lr}
10000668:	b083      	sub	sp, #12
1000066a:	9c04      	ldr	r4, [sp, #16]
1000066c:	4807      	ldr	r0, [pc, #28]	@ (1000068c <panic+0x28>)
1000066e:	f001 fded 	bl	1000224c <__wrap_puts>
10000672:	b13c      	cbz	r4, 10000684 <panic+0x20>
10000674:	a905      	add	r1, sp, #20
10000676:	4620      	mov	r0, r4
10000678:	9101      	str	r1, [sp, #4]
1000067a:	f001 fca3 	bl	10001fc4 <weak_raw_vprintf>
1000067e:	4804      	ldr	r0, [pc, #16]	@ (10000690 <panic+0x2c>)
10000680:	f001 fde4 	bl	1000224c <__wrap_puts>
10000684:	2001      	movs	r0, #1
10000686:	f001 fcb5 	bl	10001ff4 <_exit>
1000068a:	bf00      	nop
1000068c:	10003dec 	.word	0x10003dec
10000690:	10003dfc 	.word	0x10003dfc

10000694 <hw_claim_or_assert>:
10000694:	b570      	push	{r4, r5, r6, lr}
10000696:	4686      	mov	lr, r0
10000698:	f3ef 8510 	mrs	r5, PRIMASK
1000069c:	b672      	cpsid	i
1000069e:	4c12      	ldr	r4, [pc, #72]	@ (100006e8 <hw_claim_or_assert+0x54>)
100006a0:	e8d4 6fcf 	ldaexb	r6, [r4]
100006a4:	2001      	movs	r0, #1
100006a6:	2e00      	cmp	r6, #0
100006a8:	d1fa      	bne.n	100006a0 <hw_claim_or_assert+0xc>
100006aa:	e8c4 0f46 	strexb	r6, r0, [r4]
100006ae:	2e00      	cmp	r6, #0
100006b0:	d1f6      	bne.n	100006a0 <hw_claim_or_assert+0xc>
100006b2:	f3bf 8f5f 	dmb	sy
100006b6:	f04f 0c01 	mov.w	ip, #1
100006ba:	08c8      	lsrs	r0, r1, #3
100006bc:	f001 0307 	and.w	r3, r1, #7
100006c0:	fa0c f303 	lsl.w	r3, ip, r3
100006c4:	f81e c000 	ldrb.w	ip, [lr, r0]
100006c8:	ea1c 0603 	ands.w	r6, ip, r3
100006cc:	d108      	bne.n	100006e0 <hw_claim_or_assert+0x4c>
100006ce:	ea4c 0c03 	orr.w	ip, ip, r3
100006d2:	f80e c000 	strb.w	ip, [lr, r0]
100006d6:	e8c4 6f8f 	stlb	r6, [r4]
100006da:	f385 8810 	msr	PRIMASK, r5
100006de:	bd70      	pop	{r4, r5, r6, pc}
100006e0:	4610      	mov	r0, r2
100006e2:	f7ff ffbf 	bl	10000664 <panic>
100006e6:	bf00      	nop
100006e8:	2000142b 	.word	0x2000142b

100006ec <hw_claim_unused_from_range>:
100006ec:	b5f8      	push	{r3, r4, r5, r6, r7, lr}
100006ee:	f3ef 8710 	mrs	r7, PRIMASK
100006f2:	b672      	cpsid	i
100006f4:	4e1c      	ldr	r6, [pc, #112]	@ (10000768 <hw_claim_unused_from_range+0x7c>)
100006f6:	e8d6 5fcf 	ldaexb	r5, [r6]
100006fa:	2401      	movs	r4, #1
100006fc:	2d00      	cmp	r5, #0
100006fe:	d1fa      	bne.n	100006f6 <hw_claim_unused_from_range+0xa>
10000700:	e8c6 4f45 	strexb	r5, r4, [r6]
10000704:	2d00      	cmp	r5, #0
10000706:	d1f6      	bne.n	100006f6 <hw_claim_unused_from_range+0xa>
10000708:	f3bf 8f5f 	dmb	sy
1000070c:	429a      	cmp	r2, r3
1000070e:	d81b      	bhi.n	10000748 <hw_claim_unused_from_range+0x5c>
10000710:	2501      	movs	r5, #1
10000712:	e002      	b.n	1000071a <hw_claim_unused_from_range+0x2e>
10000714:	3201      	adds	r2, #1
10000716:	4293      	cmp	r3, r2
10000718:	d322      	bcc.n	10000760 <hw_claim_unused_from_range+0x74>
1000071a:	08d4      	lsrs	r4, r2, #3
1000071c:	f810 e004 	ldrb.w	lr, [r0, r4]
10000720:	f002 0c07 	and.w	ip, r2, #7
10000724:	fa05 fc0c 	lsl.w	ip, r5, ip
10000728:	ea1e 0f0c 	tst.w	lr, ip
1000072c:	d1f2      	bne.n	10000714 <hw_claim_unused_from_range+0x28>
1000072e:	ea4e 0e0c 	orr.w	lr, lr, ip
10000732:	f800 e004 	strb.w	lr, [r0, r4]
10000736:	4610      	mov	r0, r2
10000738:	2300      	movs	r3, #0
1000073a:	e8c6 3f8f 	stlb	r3, [r6]
1000073e:	f387 8810 	msr	PRIMASK, r7
10000742:	4298      	cmp	r0, r3
10000744:	db07      	blt.n	10000756 <hw_claim_unused_from_range+0x6a>
10000746:	bdf8      	pop	{r3, r4, r5, r6, r7, pc}
10000748:	2300      	movs	r3, #0
1000074a:	e8c6 3f8f 	stlb	r3, [r6]
1000074e:	f387 8810 	msr	PRIMASK, r7
10000752:	f04f 30ff 	mov.w	r0, #4294967295
10000756:	2900      	cmp	r1, #0
10000758:	d0f5      	beq.n	10000746 <hw_claim_unused_from_range+0x5a>
1000075a:	9806      	ldr	r0, [sp, #24]
1000075c:	f7ff ff82 	bl	10000664 <panic>
10000760:	f04f 30ff 	mov.w	r0, #4294967295
10000764:	e7e8      	b.n	10000738 <hw_claim_unused_from_range+0x4c>
10000766:	bf00      	nop
10000768:	2000142b 	.word	0x2000142b

1000076c <next_striped_spin_lock_num>:
1000076c:	4a04      	ldr	r2, [pc, #16]	@ (10000780 <next_striped_spin_lock_num+0x14>)
1000076e:	7810      	ldrb	r0, [r2, #0]
10000770:	1c43      	adds	r3, r0, #1
10000772:	b2db      	uxtb	r3, r3
10000774:	2b18      	cmp	r3, #24
10000776:	bf28      	it	cs
10000778:	2310      	movcs	r3, #16
1000077a:	7013      	strb	r3, [r2, #0]
1000077c:	4770      	bx	lr
1000077e:	bf00      	nop
10000780:	20001130 	.word	0x20001130

10000784 <spin_lock_claim_unused>:
10000784:	b510      	push	{r4, lr}
10000786:	4c05      	ldr	r4, [pc, #20]	@ (1000079c <spin_lock_claim_unused+0x18>)
10000788:	b082      	sub	sp, #8
1000078a:	4601      	mov	r1, r0
1000078c:	231f      	movs	r3, #31
1000078e:	2218      	movs	r2, #24
10000790:	9400      	str	r4, [sp, #0]
10000792:	4803      	ldr	r0, [pc, #12]	@ (100007a0 <spin_lock_claim_unused+0x1c>)
10000794:	f7ff ffaa 	bl	100006ec <hw_claim_unused_from_range>
10000798:	b002      	add	sp, #8
1000079a:	bd10      	pop	{r4, pc}
1000079c:	10003e00 	.word	0x10003e00
100007a0:	20001568 	.word	0x20001568

100007a4 <spinlock_set_extexclall>:
100007a4:	f04f 22e0 	mov.w	r2, #3758153728	@ 0xe000e000
100007a8:	6893      	ldr	r3, [r2, #8]
100007aa:	f043 5300 	orr.w	r3, r3, #536870912	@ 0x20000000
100007ae:	6093      	str	r3, [r2, #8]
100007b0:	4770      	bx	lr
100007b2:	bf00      	nop

100007b4 <spin_locks_reset>:
100007b4:	2100      	movs	r1, #0
100007b6:	4b04      	ldr	r3, [pc, #16]	@ (100007c8 <spin_locks_reset+0x14>)
100007b8:	f103 0220 	add.w	r2, r3, #32
100007bc:	e8c3 1f8f 	stlb	r1, [r3]
100007c0:	3301      	adds	r3, #1
100007c2:	4293      	cmp	r3, r2
100007c4:	d1fa      	bne.n	100007bc <spin_locks_reset+0x8>
100007c6:	4770      	bx	lr
100007c8:	20001420 	.word	0x20001420

100007cc <runtime_init_per_core_irq_priorities>:
100007cc:	f04f 23e0 	mov.w	r3, #3758153728	@ 0xe000e000
100007d0:	f04f 3280 	mov.w	r2, #2155905152	@ 0x80808080
100007d4:	f8c3 2400 	str.w	r2, [r3, #1024]	@ 0x400
100007d8:	f8c3 2404 	str.w	r2, [r3, #1028]	@ 0x404
100007dc:	f8c3 2408 	str.w	r2, [r3, #1032]	@ 0x408
100007e0:	f8c3 240c 	str.w	r2, [r3, #1036]	@ 0x40c
100007e4:	f8c3 2410 	str.w	r2, [r3, #1040]	@ 0x410
100007e8:	f8c3 2414 	str.w	r2, [r3, #1044]	@ 0x414
100007ec:	f8c3 2418 	str.w	r2, [r3, #1048]	@ 0x418
100007f0:	f8c3 241c 	str.w	r2, [r3, #1052]	@ 0x41c
100007f4:	f8c3 2420 	str.w	r2, [r3, #1056]	@ 0x420
100007f8:	f8c3 2424 	str.w	r2, [r3, #1060]	@ 0x424
100007fc:	f8c3 2428 	str.w	r2, [r3, #1064]	@ 0x428
10000800:	f8c3 242c 	str.w	r2, [r3, #1068]	@ 0x42c
10000804:	f8c3 2430 	str.w	r2, [r3, #1072]	@ 0x430
10000808:	b662      	cpsie	i
1000080a:	4770      	bx	lr

1000080c <irq_set_enabled>:
1000080c:	2301      	movs	r3, #1
1000080e:	f000 021f 	and.w	r2, r0, #31
10000812:	4093      	lsls	r3, r2
10000814:	0940      	lsrs	r0, r0, #5
10000816:	b141      	cbz	r1, 1000082a <irq_set_enabled+0x1e>
10000818:	0080      	lsls	r0, r0, #2
1000081a:	f100 4060 	add.w	r0, r0, #3758096384	@ 0xe0000000
1000081e:	f500 4061 	add.w	r0, r0, #57600	@ 0xe100
10000822:	f8c0 3180 	str.w	r3, [r0, #384]	@ 0x180
10000826:	6003      	str	r3, [r0, #0]
10000828:	4770      	bx	lr
1000082a:	4a02      	ldr	r2, [pc, #8]	@ (10000834 <irq_set_enabled+0x28>)
1000082c:	3020      	adds	r0, #32
1000082e:	f842 3020 	str.w	r3, [r2, r0, lsl #2]
10000832:	4770      	bx	lr
10000834:	e000e100 	.word	0xe000e100

10000838 <irq_set_exclusive_handler>:
10000838:	b5f8      	push	{r3, r4, r5, r6, r7, lr}
1000083a:	460d      	mov	r5, r1
1000083c:	f3ef 8710 	mrs	r7, PRIMASK
10000840:	b672      	cpsid	i
10000842:	4e12      	ldr	r6, [pc, #72]	@ (1000088c <irq_set_exclusive_handler+0x54>)
10000844:	e8d6 2fcf 	ldaexb	r2, [r6]
10000848:	2301      	movs	r3, #1
1000084a:	2a00      	cmp	r2, #0
1000084c:	d1fa      	bne.n	10000844 <irq_set_exclusive_handler+0xc>
1000084e:	e8c6 3f42 	strexb	r2, r3, [r6]
10000852:	2a00      	cmp	r2, #0
10000854:	d1f6      	bne.n	10000844 <irq_set_exclusive_handler+0xc>
10000856:	f3bf 8f5f 	dmb	sy
1000085a:	4b0d      	ldr	r3, [pc, #52]	@ (10000890 <irq_set_exclusive_handler+0x58>)
1000085c:	f100 0410 	add.w	r4, r0, #16
10000860:	689b      	ldr	r3, [r3, #8]
10000862:	4a0c      	ldr	r2, [pc, #48]	@ (10000894 <irq_set_exclusive_handler+0x5c>)
10000864:	f853 3024 	ldr.w	r3, [r3, r4, lsl #2]
10000868:	4293      	cmp	r3, r2
1000086a:	d003      	beq.n	10000874 <irq_set_exclusive_handler+0x3c>
1000086c:	4299      	cmp	r1, r3
1000086e:	d001      	beq.n	10000874 <irq_set_exclusive_handler+0x3c>
10000870:	f000 fe72 	bl	10001558 <hard_assertion_failure>
10000874:	4b06      	ldr	r3, [pc, #24]	@ (10000890 <irq_set_exclusive_handler+0x58>)
10000876:	689b      	ldr	r3, [r3, #8]
10000878:	f843 5024 	str.w	r5, [r3, r4, lsl #2]
1000087c:	f3bf 8f5f 	dmb	sy
10000880:	2300      	movs	r3, #0
10000882:	e8c6 3f8f 	stlb	r3, [r6]
10000886:	f387 8810 	msr	PRIMASK, r7
1000088a:	bdf8      	pop	{r3, r4, r5, r6, r7, pc}
1000088c:	20001429 	.word	0x20001429
10000890:	e000ed00 	.word	0xe000ed00
10000894:	10000111 	.word	0x10000111

10000898 <irq_add_shared_handler>:
10000898:	e92d 4ff0 	stmdb	sp!, {r4, r5, r6, r7, r8, r9, sl, fp, lr}
1000089c:	4681      	mov	r9, r0
1000089e:	468b      	mov	fp, r1
100008a0:	4616      	mov	r6, r2
100008a2:	b083      	sub	sp, #12
100008a4:	f3ef 8310 	mrs	r3, PRIMASK
100008a8:	b672      	cpsid	i
100008aa:	f8df a1d0 	ldr.w	sl, [pc, #464]	@ 10000a7c <irq_add_shared_handler+0x1e4>
100008ae:	9300      	str	r3, [sp, #0]
100008b0:	e8da 1fcf 	ldaexb	r1, [sl]
100008b4:	2301      	movs	r3, #1
100008b6:	2900      	cmp	r1, #0
100008b8:	d1fa      	bne.n	100008b0 <irq_add_shared_handler+0x18>
100008ba:	e8ca 3f41 	strexb	r1, r3, [sl]
100008be:	2900      	cmp	r1, #0
100008c0:	d1f6      	bne.n	100008b0 <irq_add_shared_handler+0x18>
100008c2:	f3bf 8f5f 	dmb	sy
100008c6:	4b66      	ldr	r3, [pc, #408]	@ (10000a60 <irq_add_shared_handler+0x1c8>)
100008c8:	f993 4000 	ldrsb.w	r4, [r3]
100008cc:	2c00      	cmp	r4, #0
100008ce:	f2c0 80a0 	blt.w	10000a12 <irq_add_shared_handler+0x17a>
100008d2:	4d64      	ldr	r5, [pc, #400]	@ (10000a64 <irq_add_shared_handler+0x1cc>)
100008d4:	eb04 0744 	add.w	r7, r4, r4, lsl #1
100008d8:	eb05 0887 	add.w	r8, r5, r7, lsl #2
100008dc:	f898 1006 	ldrb.w	r1, [r8, #6]
100008e0:	f109 0910 	add.w	r9, r9, #16
100008e4:	7019      	strb	r1, [r3, #0]
100008e6:	4b60      	ldr	r3, [pc, #384]	@ (10000a68 <irq_add_shared_handler+0x1d0>)
100008e8:	00bf      	lsls	r7, r7, #2
100008ea:	689b      	ldr	r3, [r3, #8]
100008ec:	f853 0029 	ldr.w	r0, [r3, r9, lsl #2]
100008f0:	0063      	lsls	r3, r4, #1
100008f2:	1b41      	subs	r1, r0, r5
100008f4:	292f      	cmp	r1, #47	@ 0x2f
100008f6:	d92f      	bls.n	10000958 <irq_add_shared_handler+0xc0>
100008f8:	495c      	ldr	r1, [pc, #368]	@ (10000a6c <irq_add_shared_handler+0x1d4>)
100008fa:	4288      	cmp	r0, r1
100008fc:	f040 80a4 	bne.w	10000a48 <irq_add_shared_handler+0x1b0>
10000900:	441c      	add	r4, r3
10000902:	4b5b      	ldr	r3, [pc, #364]	@ (10000a70 <irq_add_shared_handler+0x1d8>)
10000904:	3702      	adds	r7, #2
10000906:	442f      	add	r7, r5
10000908:	3b04      	subs	r3, #4
1000090a:	1bdb      	subs	r3, r3, r7
1000090c:	f3c3 034a 	ubfx	r3, r3, #1, #11
10000910:	ea6f 43c3 	mvn.w	r3, r3, lsl #19
10000914:	f44f 4121 	mov.w	r1, #41216	@ 0xa100
10000918:	ea6f 43d3 	mvn.w	r3, r3, lsr #19
1000091c:	f825 1024 	strh.w	r1, [r5, r4, lsl #2]
10000920:	eb05 0484 	add.w	r4, r5, r4, lsl #2
10000924:	8063      	strh	r3, [r4, #2]
10000926:	f64b 5301 	movw	r3, #48385	@ 0xbd01
1000092a:	80a3      	strh	r3, [r4, #4]
1000092c:	23ff      	movs	r3, #255	@ 0xff
1000092e:	f048 0001 	orr.w	r0, r8, #1
10000932:	71e6      	strb	r6, [r4, #7]
10000934:	f8c4 b008 	str.w	fp, [r4, #8]
10000938:	71a3      	strb	r3, [r4, #6]
1000093a:	4b4b      	ldr	r3, [pc, #300]	@ (10000a68 <irq_add_shared_handler+0x1d0>)
1000093c:	689b      	ldr	r3, [r3, #8]
1000093e:	f843 0029 	str.w	r0, [r3, r9, lsl #2]
10000942:	f3bf 8f5f 	dmb	sy
10000946:	2300      	movs	r3, #0
10000948:	e8ca 3f8f 	stlb	r3, [sl]
1000094c:	9b00      	ldr	r3, [sp, #0]
1000094e:	f383 8810 	msr	PRIMASK, r3
10000952:	b003      	add	sp, #12
10000954:	e8bd 8ff0 	ldmia.w	sp!, {r4, r5, r6, r7, r8, r9, sl, fp, pc}
10000958:	f020 0e01 	bic.w	lr, r0, #1
1000095c:	f89e 1007 	ldrb.w	r1, [lr, #7]
10000960:	42b1      	cmp	r1, r6
10000962:	d82e      	bhi.n	100009c2 <irq_add_shared_handler+0x12a>
10000964:	f44f 4321 	mov.w	r3, #41216	@ 0xa100
10000968:	53eb      	strh	r3, [r5, r7]
1000096a:	4b41      	ldr	r3, [pc, #260]	@ (10000a70 <irq_add_shared_handler+0x1d8>)
1000096c:	1cb9      	adds	r1, r7, #2
1000096e:	4429      	add	r1, r5
10000970:	3b04      	subs	r3, #4
10000972:	3704      	adds	r7, #4
10000974:	1a5b      	subs	r3, r3, r1
10000976:	442f      	add	r7, r5
10000978:	f1ae 0104 	sub.w	r1, lr, #4
1000097c:	1bc9      	subs	r1, r1, r7
1000097e:	f3c1 044a 	ubfx	r4, r1, #1, #11
10000982:	493c      	ldr	r1, [pc, #240]	@ (10000a74 <irq_add_shared_handler+0x1dc>)
10000984:	f3c3 034a 	ubfx	r3, r3, #1, #11
10000988:	430b      	orrs	r3, r1
1000098a:	4321      	orrs	r1, r4
1000098c:	f8a8 1004 	strh.w	r1, [r8, #4]
10000990:	4939      	ldr	r1, [pc, #228]	@ (10000a78 <irq_add_shared_handler+0x1e0>)
10000992:	f8a8 3002 	strh.w	r3, [r8, #2]
10000996:	f64a 20aa 	movw	r0, #43690	@ 0xaaaa
1000099a:	4673      	mov	r3, lr
1000099c:	1b5b      	subs	r3, r3, r5
1000099e:	415b      	adcs	r3, r3
100009a0:	4358      	muls	r0, r3
100009a2:	0d00      	lsrs	r0, r0, #20
100009a4:	f888 6007 	strb.w	r6, [r8, #7]
100009a8:	f888 0006 	strb.w	r0, [r8, #6]
100009ac:	f8c8 b008 	str.w	fp, [r8, #8]
100009b0:	f048 0001 	orr.w	r0, r8, #1
100009b4:	f8ce 1000 	str.w	r1, [lr]
100009b8:	e7bf      	b.n	1000093a <irq_add_shared_handler+0xa2>
100009ba:	79d1      	ldrb	r1, [r2, #7]
100009bc:	42b1      	cmp	r1, r6
100009be:	d92e      	bls.n	10000a1e <irq_add_shared_handler+0x186>
100009c0:	4696      	mov	lr, r2
100009c2:	f99e c006 	ldrsb.w	ip, [lr, #6]
100009c6:	eb0c 024c 	add.w	r2, ip, ip, lsl #1
100009ca:	f1bc 0f00 	cmp.w	ip, #0
100009ce:	eb05 0282 	add.w	r2, r5, r2, lsl #2
100009d2:	daf2      	bge.n	100009ba <irq_add_shared_handler+0x122>
100009d4:	f64b 5101 	movw	r1, #48385	@ 0xbd01
100009d8:	f10e 0204 	add.w	r2, lr, #4
100009dc:	f1a8 0704 	sub.w	r7, r8, #4
100009e0:	1abf      	subs	r7, r7, r2
100009e2:	f3c7 074a 	ubfx	r7, r7, #1, #11
100009e6:	ea6f 47c7 	mvn.w	r7, r7, lsl #19
100009ea:	ea6f 47d7 	mvn.w	r7, r7, lsr #19
100009ee:	f88e 4006 	strb.w	r4, [lr, #6]
100009f2:	eb03 0804 	add.w	r8, r3, r4
100009f6:	4c20      	ldr	r4, [pc, #128]	@ (10000a78 <irq_add_shared_handler+0x1e0>)
100009f8:	eb05 0388 	add.w	r3, r5, r8, lsl #2
100009fc:	f8ae 7004 	strh.w	r7, [lr, #4]
10000a00:	f845 4028 	str.w	r4, [r5, r8, lsl #2]
10000a04:	8099      	strh	r1, [r3, #4]
10000a06:	f883 c006 	strb.w	ip, [r3, #6]
10000a0a:	71de      	strb	r6, [r3, #7]
10000a0c:	f8c3 b008 	str.w	fp, [r3, #8]
10000a10:	e793      	b.n	1000093a <irq_add_shared_handler+0xa2>
10000a12:	f000 fda1 	bl	10001558 <hard_assertion_failure>
10000a16:	4b12      	ldr	r3, [pc, #72]	@ (10000a60 <irq_add_shared_handler+0x1c8>)
10000a18:	f993 4000 	ldrsb.w	r4, [r3]
10000a1c:	e759      	b.n	100008d2 <irq_add_shared_handler+0x3a>
10000a1e:	4672      	mov	r2, lr
10000a20:	f832 1f04 	ldrh.w	r1, [r2, #4]!
10000a24:	0549      	lsls	r1, r1, #21
10000a26:	d414      	bmi.n	10000a52 <irq_add_shared_handler+0x1ba>
10000a28:	1549      	asrs	r1, r1, #21
10000a2a:	3102      	adds	r1, #2
10000a2c:	eb02 0141 	add.w	r1, r2, r1, lsl #1
10000a30:	9101      	str	r1, [sp, #4]
10000a32:	f06f 0107 	mvn.w	r1, #7
10000a36:	1bc9      	subs	r1, r1, r7
10000a38:	9f01      	ldr	r7, [sp, #4]
10000a3a:	1b49      	subs	r1, r1, r5
10000a3c:	4439      	add	r1, r7
10000a3e:	f3c1 014a 	ubfx	r1, r1, #1, #11
10000a42:	f441 4160 	orr.w	r1, r1, #57344	@ 0xe000
10000a46:	e7c9      	b.n	100009dc <irq_add_shared_handler+0x144>
10000a48:	9301      	str	r3, [sp, #4]
10000a4a:	f000 fd85 	bl	10001558 <hard_assertion_failure>
10000a4e:	9b01      	ldr	r3, [sp, #4]
10000a50:	e756      	b.n	10000900 <irq_add_shared_handler+0x68>
10000a52:	f501 11ff 	add.w	r1, r1, #2088960	@ 0x1fe000
10000a56:	f501 51ff 	add.w	r1, r1, #8160	@ 0x1fe0
10000a5a:	311f      	adds	r1, #31
10000a5c:	e7e4      	b.n	10000a28 <irq_add_shared_handler+0x190>
10000a5e:	bf00      	nop
10000a60:	200019f3 	.word	0x200019f3
10000a64:	20001134 	.word	0x20001134
10000a68:	e000ed00 	.word	0xe000ed00
10000a6c:	10000111 	.word	0x10000111
10000a70:	20001164 	.word	0x20001164
10000a74:	ffffe000 	.word	0xffffe000
10000a78:	47804801 	.word	0x47804801
10000a7c:	20001429 	.word	0x20001429

10000a80 <irq_add_tail_to_free_list>:
10000a80:	b5f0      	push	{r4, r5, r6, r7, lr}
10000a82:	f3ef 8505 	mrs	r5, IPSR
10000a86:	b2ed      	uxtb	r5, r5
10000a88:	f3ef 8c10 	mrs	ip, PRIMASK
10000a8c:	b672      	cpsid	i
10000a8e:	4926      	ldr	r1, [pc, #152]	@ (10000b28 <irq_add_tail_to_free_list+0xa8>)
10000a90:	e8d1 2fcf 	ldaexb	r2, [r1]
10000a94:	2301      	movs	r3, #1
10000a96:	2a00      	cmp	r2, #0
10000a98:	d1fa      	bne.n	10000a90 <irq_add_tail_to_free_list+0x10>
10000a9a:	e8c1 3f42 	strexb	r2, r3, [r1]
10000a9e:	2a00      	cmp	r2, #0
10000aa0:	d1f6      	bne.n	10000a90 <irq_add_tail_to_free_list+0x10>
10000aa2:	f3bf 8f5f 	dmb	sy
10000aa6:	4e21      	ldr	r6, [pc, #132]	@ (10000b2c <irq_add_tail_to_free_list+0xac>)
10000aa8:	f040 0e01 	orr.w	lr, r0, #1
10000aac:	68b4      	ldr	r4, [r6, #8]
10000aae:	f64a 23aa 	movw	r3, #43690	@ 0xaaaa
10000ab2:	f854 7025 	ldr.w	r7, [r4, r5, lsl #2]
10000ab6:	4a1e      	ldr	r2, [pc, #120]	@ (10000b30 <irq_add_tail_to_free_list+0xb0>)
10000ab8:	4604      	mov	r4, r0
10000aba:	1aa4      	subs	r4, r4, r2
10000abc:	4164      	adcs	r4, r4
10000abe:	4363      	muls	r3, r4
10000ac0:	0d1b      	lsrs	r3, r3, #20
10000ac2:	4577      	cmp	r7, lr
10000ac4:	b25b      	sxtb	r3, r3
10000ac6:	d01b      	beq.n	10000b00 <irq_add_tail_to_free_list+0x80>
10000ac8:	f992 4006 	ldrsb.w	r4, [r2, #6]
10000acc:	429c      	cmp	r4, r3
10000ace:	d01c      	beq.n	10000b0a <irq_add_tail_to_free_list+0x8a>
10000ad0:	f992 4012 	ldrsb.w	r4, [r2, #18]
10000ad4:	429c      	cmp	r4, r3
10000ad6:	d023      	beq.n	10000b20 <irq_add_tail_to_free_list+0xa0>
10000ad8:	f992 401e 	ldrsb.w	r4, [r2, #30]
10000adc:	429c      	cmp	r4, r3
10000ade:	d021      	beq.n	10000b24 <irq_add_tail_to_free_list+0xa4>
10000ae0:	f992 402a 	ldrsb.w	r4, [r2, #42]	@ 0x2a
10000ae4:	429c      	cmp	r4, r3
10000ae6:	bf08      	it	eq
10000ae8:	2403      	moveq	r4, #3
10000aea:	d00f      	beq.n	10000b0c <irq_add_tail_to_free_list+0x8c>
10000aec:	4a11      	ldr	r2, [pc, #68]	@ (10000b34 <irq_add_tail_to_free_list+0xb4>)
10000aee:	2400      	movs	r4, #0
10000af0:	7815      	ldrb	r5, [r2, #0]
10000af2:	7013      	strb	r3, [r2, #0]
10000af4:	7185      	strb	r5, [r0, #6]
10000af6:	e8c1 4f8f 	stlb	r4, [r1]
10000afa:	f38c 8810 	msr	PRIMASK, ip
10000afe:	bdf0      	pop	{r4, r5, r6, r7, pc}
10000b00:	68b2      	ldr	r2, [r6, #8]
10000b02:	4c0d      	ldr	r4, [pc, #52]	@ (10000b38 <irq_add_tail_to_free_list+0xb8>)
10000b04:	f842 4025 	str.w	r4, [r2, r5, lsl #2]
10000b08:	e7f0      	b.n	10000aec <irq_add_tail_to_free_list+0x6c>
10000b0a:	2400      	movs	r4, #0
10000b0c:	eb04 0444 	add.w	r4, r4, r4, lsl #1
10000b10:	eb02 0284 	add.w	r2, r2, r4, lsl #2
10000b14:	24ff      	movs	r4, #255	@ 0xff
10000b16:	7194      	strb	r4, [r2, #6]
10000b18:	f64b 5401 	movw	r4, #48385	@ 0xbd01
10000b1c:	8094      	strh	r4, [r2, #4]
10000b1e:	e7e5      	b.n	10000aec <irq_add_tail_to_free_list+0x6c>
10000b20:	2401      	movs	r4, #1
10000b22:	e7f3      	b.n	10000b0c <irq_add_tail_to_free_list+0x8c>
10000b24:	2402      	movs	r4, #2
10000b26:	e7f1      	b.n	10000b0c <irq_add_tail_to_free_list+0x8c>
10000b28:	20001429 	.word	0x20001429
10000b2c:	e000ed00 	.word	0xe000ed00
10000b30:	20001134 	.word	0x20001134
10000b34:	200019f3 	.word	0x200019f3
10000b38:	10000111 	.word	0x10000111

10000b3c <lock_init>:
10000b3c:	4b01      	ldr	r3, [pc, #4]	@ (10000b44 <lock_init+0x8>)
10000b3e:	440b      	add	r3, r1
10000b40:	6003      	str	r3, [r0, #0]
10000b42:	4770      	bx	lr
10000b44:	20001420 	.word	0x20001420

10000b48 <runtime_init_mutex>:
10000b48:	b570      	push	{r4, r5, r6, lr}
10000b4a:	4c10      	ldr	r4, [pc, #64]	@ (10000b8c <runtime_init_mutex+0x44>)
10000b4c:	4d10      	ldr	r5, [pc, #64]	@ (10000b90 <runtime_init_mutex+0x48>)
10000b4e:	42ac      	cmp	r4, r5
10000b50:	d20e      	bcs.n	10000b70 <runtime_init_mutex+0x28>
10000b52:	26ff      	movs	r6, #255	@ 0xff
10000b54:	6823      	ldr	r3, [r4, #0]
10000b56:	b163      	cbz	r3, 10000b72 <runtime_init_mutex+0x2a>
10000b58:	f7ff fe08 	bl	1000076c <next_striped_spin_lock_num>
10000b5c:	4601      	mov	r1, r0
10000b5e:	4620      	mov	r0, r4
10000b60:	f7ff ffec 	bl	10000b3c <lock_init>
10000b64:	80a6      	strh	r6, [r4, #4]
10000b66:	f3bf 8f5f 	dmb	sy
10000b6a:	3408      	adds	r4, #8
10000b6c:	42ac      	cmp	r4, r5
10000b6e:	d3f1      	bcc.n	10000b54 <runtime_init_mutex+0xc>
10000b70:	bd70      	pop	{r4, r5, r6, pc}
10000b72:	f7ff fdfb 	bl	1000076c <next_striped_spin_lock_num>
10000b76:	4601      	mov	r1, r0
10000b78:	4620      	mov	r0, r4
10000b7a:	f7ff ffdf 	bl	10000b3c <lock_init>
10000b7e:	7126      	strb	r6, [r4, #4]
10000b80:	f3bf 8f5f 	dmb	sy
10000b84:	3408      	adds	r4, #8
10000b86:	42ac      	cmp	r4, r5
10000b88:	d3e4      	bcc.n	10000b54 <runtime_init_mutex+0xc>
10000b8a:	bd70      	pop	{r4, r5, r6, pc}
10000b8c:	200011bc 	.word	0x200011bc
10000b90:	200011c4 	.word	0x200011c4

10000b94 <mutex_init>:
10000b94:	b510      	push	{r4, lr}
10000b96:	4604      	mov	r4, r0
10000b98:	f7ff fde8 	bl	1000076c <next_striped_spin_lock_num>
10000b9c:	4601      	mov	r1, r0
10000b9e:	4620      	mov	r0, r4
10000ba0:	f7ff ffcc 	bl	10000b3c <lock_init>
10000ba4:	23ff      	movs	r3, #255	@ 0xff
10000ba6:	7123      	strb	r3, [r4, #4]
10000ba8:	f3bf 8f5f 	dmb	sy
10000bac:	bd10      	pop	{r4, pc}
10000bae:	bf00      	nop

10000bb0 <critical_section_init>:
10000bb0:	b510      	push	{r4, lr}
10000bb2:	4604      	mov	r4, r0
10000bb4:	2001      	movs	r0, #1
10000bb6:	f7ff fde5 	bl	10000784 <spin_lock_claim_unused>
10000bba:	4b03      	ldr	r3, [pc, #12]	@ (10000bc8 <critical_section_init+0x18>)
10000bbc:	4403      	add	r3, r0
10000bbe:	6023      	str	r3, [r4, #0]
10000bc0:	f3bf 8f5f 	dmb	sy
10000bc4:	bd10      	pop	{r4, pc}
10000bc6:	bf00      	nop
10000bc8:	20001420 	.word	0x20001420

10000bcc <sleep_until_callback>:
10000bcc:	4b0d      	ldr	r3, [pc, #52]	@ (10000c04 <sleep_until_callback+0x38>)
10000bce:	681a      	ldr	r2, [r3, #0]
10000bd0:	f3ef 8110 	mrs	r1, PRIMASK
10000bd4:	b672      	cpsid	i
10000bd6:	e8d2 cfcf 	ldaexb	ip, [r2]
10000bda:	2001      	movs	r0, #1
10000bdc:	f1bc 0f00 	cmp.w	ip, #0
10000be0:	d1f9      	bne.n	10000bd6 <sleep_until_callback+0xa>
10000be2:	e8c2 0f4c 	strexb	ip, r0, [r2]
10000be6:	f1bc 0f00 	cmp.w	ip, #0
10000bea:	d1f4      	bne.n	10000bd6 <sleep_until_callback+0xa>
10000bec:	f3bf 8f5f 	dmb	sy
10000bf0:	2200      	movs	r2, #0
10000bf2:	681b      	ldr	r3, [r3, #0]
10000bf4:	e8c3 2f8f 	stlb	r2, [r3]
10000bf8:	f381 8810 	msr	PRIMASK, r1
10000bfc:	bf40      	sev
10000bfe:	2000      	movs	r0, #0
10000c00:	2100      	movs	r1, #0
10000c02:	4770      	bx	lr
10000c04:	200019ec 	.word	0x200019ec

10000c08 <alarm_pool_irq_handler>:
10000c08:	e92d 4ff0 	stmdb	sp!, {r4, r5, r6, r7, r8, r9, sl, fp, lr}
10000c0c:	ed2d 8b02 	vpush	{d8}
10000c10:	b085      	sub	sp, #20
10000c12:	f3ef 8305 	mrs	r3, IPSR
10000c16:	b2db      	uxtb	r3, r3
10000c18:	3b10      	subs	r3, #16
10000c1a:	089a      	lsrs	r2, r3, #2
10000c1c:	bf18      	it	ne
10000c1e:	2201      	movne	r2, #1
10000c20:	f04f 0101 	mov.w	r1, #1
10000c24:	f003 0b03 	and.w	fp, r3, #3
10000c28:	bf18      	it	ne
10000c2a:	4daf      	ldrne	r5, [pc, #700]	@ (10000ee8 <alarm_pool_irq_handler+0x2e0>)
10000c2c:	4baf      	ldr	r3, [pc, #700]	@ (10000eec <alarm_pool_irq_handler+0x2e4>)
10000c2e:	bf08      	it	eq
10000c30:	4daf      	ldreq	r5, [pc, #700]	@ (10000ef0 <alarm_pool_irq_handler+0x2e8>)
10000c32:	eb0b 0282 	add.w	r2, fp, r2, lsl #2
10000c36:	f853 6022 	ldr.w	r6, [r3, r2, lsl #2]
10000c3a:	fa01 f20b 	lsl.w	r2, r1, fp
10000c3e:	f505 5341 	add.w	r3, r5, #12352	@ 0x3040
10000c42:	ed9f 8ba7 	vldr	d8, [pc, #668]	@ 10000ee0 <alarm_pool_irq_handler+0x2d8>
10000c46:	9201      	str	r2, [sp, #4]
10000c48:	605a      	str	r2, [r3, #4]
10000c4a:	e02f      	b.n	10000cac <alarm_pool_irq_handler+0xa4>
10000c4c:	88b3      	ldrh	r3, [r6, #4]
10000c4e:	041c      	lsls	r4, r3, #16
10000c50:	f140 8093 	bpl.w	10000d7a <alarm_pool_irq_handler+0x172>
10000c54:	79b3      	ldrb	r3, [r6, #6]
10000c56:	2b00      	cmp	r3, #0
10000c58:	f040 80dd 	bne.w	10000e16 <alarm_pool_irq_handler+0x20e>
10000c5c:	f9b6 2008 	ldrsh.w	r2, [r6, #8]
10000c60:	2a00      	cmp	r2, #0
10000c62:	f2c0 811e 	blt.w	10000ea2 <alarm_pool_irq_handler+0x29a>
10000c66:	6973      	ldr	r3, [r6, #20]
10000c68:	eb02 0242 	add.w	r2, r2, r2, lsl #1
10000c6c:	eb03 03c2 	add.w	r3, r3, r2, lsl #3
10000c70:	e9d3 4702 	ldrd	r4, r7, [r3, #8]
10000c74:	f1b7 3fff 	cmp.w	r7, #4294967295
10000c78:	bf08      	it	eq
10000c7a:	f1b4 3fff 	cmpeq.w	r4, #4294967295
10000c7e:	d00e      	beq.n	10000c9e <alarm_pool_irq_handler+0x96>
10000c80:	eb05 018b 	add.w	r1, r5, fp, lsl #2
10000c84:	6aab      	ldr	r3, [r5, #40]	@ 0x28
10000c86:	690a      	ldr	r2, [r1, #16]
10000c88:	1ad2      	subs	r2, r2, r3
10000c8a:	1ae3      	subs	r3, r4, r3
10000c8c:	4293      	cmp	r3, r2
10000c8e:	d305      	bcc.n	10000c9c <alarm_pool_irq_handler+0x94>
10000c90:	2301      	movs	r3, #1
10000c92:	6a2a      	ldr	r2, [r5, #32]
10000c94:	fa03 f30b 	lsl.w	r3, r3, fp
10000c98:	4213      	tst	r3, r2
10000c9a:	d100      	bne.n	10000c9e <alarm_pool_irq_handler+0x96>
10000c9c:	610c      	str	r4, [r1, #16]
10000c9e:	4628      	mov	r0, r5
10000ca0:	f000 fb38 	bl	10001314 <timer_time_us_64>
10000ca4:	42a0      	cmp	r0, r4
10000ca6:	41b9      	sbcs	r1, r7
10000ca8:	f2c0 80fb 	blt.w	10000ea2 <alarm_pool_irq_handler+0x29a>
10000cac:	f9b6 3008 	ldrsh.w	r3, [r6, #8]
10000cb0:	9a01      	ldr	r2, [sp, #4]
10000cb2:	2b00      	cmp	r3, #0
10000cb4:	9300      	str	r3, [sp, #0]
10000cb6:	63ea      	str	r2, [r5, #60]	@ 0x3c
10000cb8:	dbc8      	blt.n	10000c4c <alarm_pool_irq_handler+0x44>
10000cba:	f8d6 8014 	ldr.w	r8, [r6, #20]
10000cbe:	eb03 0943 	add.w	r9, r3, r3, lsl #1
10000cc2:	4628      	mov	r0, r5
10000cc4:	eb08 07c9 	add.w	r7, r8, r9, lsl #3
10000cc8:	e9d7 4a02 	ldrd	r4, sl, [r7, #8]
10000ccc:	f000 fb22 	bl	10001314 <timer_time_us_64>
10000cd0:	42a0      	cmp	r0, r4
10000cd2:	eb71 010a 	sbcs.w	r1, r1, sl
10000cd6:	dbb9      	blt.n	10000c4c <alarm_pool_irq_handler+0x44>
10000cd8:	f1ba 0f00 	cmp.w	sl, #0
10000cdc:	f2c0 80c3 	blt.w	10000e66 <alarm_pool_irq_handler+0x25e>
10000ce0:	e9d7 3104 	ldrd	r3, r1, [r7, #16]
10000ce4:	4a83      	ldr	r2, [pc, #524]	@ (10000ef4 <alarm_pool_irq_handler+0x2ec>)
10000ce6:	4293      	cmp	r3, r2
10000ce8:	f000 80ed 	beq.w	10000ec6 <alarm_pool_irq_handler+0x2be>
10000cec:	887a      	ldrh	r2, [r7, #2]
10000cee:	f9b6 0008 	ldrsh.w	r0, [r6, #8]
10000cf2:	b292      	uxth	r2, r2
10000cf4:	ea42 4000 	orr.w	r0, r2, r0, lsl #16
10000cf8:	4798      	blx	r3
10000cfa:	4602      	mov	r2, r0
10000cfc:	460b      	mov	r3, r1
10000cfe:	ea52 0103 	orrs.w	r1, r2, r3
10000d02:	f000 80b0 	beq.w	10000e66 <alarm_pool_irq_handler+0x25e>
10000d06:	2b00      	cmp	r3, #0
10000d08:	f280 80d1 	bge.w	10000eae <alarm_pool_irq_handler+0x2a6>
10000d0c:	ebb4 0e02 	subs.w	lr, r4, r2
10000d10:	eb6a 0a03 	sbc.w	sl, sl, r3
10000d14:	f938 3039 	ldrsh.w	r3, [r8, r9, lsl #3]
10000d18:	e9c7 ea02 	strd	lr, sl, [r7, #8]
10000d1c:	2b00      	cmp	r3, #0
10000d1e:	db95      	blt.n	10000c4c <alarm_pool_irq_handler+0x44>
10000d20:	6971      	ldr	r1, [r6, #20]
10000d22:	eb03 0243 	add.w	r2, r3, r3, lsl #1
10000d26:	eb01 02c2 	add.w	r2, r1, r2, lsl #3
10000d2a:	e9d2 7002 	ldrd	r7, r0, [r2, #8]
10000d2e:	45be      	cmp	lr, r7
10000d30:	eb7a 0c00 	sbcs.w	ip, sl, r0
10000d34:	ea4f 0243 	mov.w	r2, r3, lsl #1
10000d38:	db88      	blt.n	10000c4c <alarm_pool_irq_handler+0x44>
10000d3a:	46b4      	mov	ip, r6
10000d3c:	f82c 3f08 	strh.w	r3, [ip, #8]!
10000d40:	e006      	b.n	10000d50 <alarm_pool_irq_handler+0x148>
10000d42:	eb03 0043 	add.w	r0, r3, r3, lsl #1
10000d46:	eb01 00c0 	add.w	r0, r1, r0, lsl #3
10000d4a:	005a      	lsls	r2, r3, #1
10000d4c:	e9d0 7002 	ldrd	r7, r0, [r0, #8]
10000d50:	45be      	cmp	lr, r7
10000d52:	441a      	add	r2, r3
10000d54:	eb7a 0000 	sbcs.w	r0, sl, r0
10000d58:	eb01 04c2 	add.w	r4, r1, r2, lsl #3
10000d5c:	db04      	blt.n	10000d68 <alarm_pool_irq_handler+0x160>
10000d5e:	f931 3032 	ldrsh.w	r3, [r1, r2, lsl #3]
10000d62:	46a4      	mov	ip, r4
10000d64:	2b00      	cmp	r3, #0
10000d66:	daec      	bge.n	10000d42 <alarm_pool_irq_handler+0x13a>
10000d68:	f828 3039 	strh.w	r3, [r8, r9, lsl #3]
10000d6c:	9b00      	ldr	r3, [sp, #0]
10000d6e:	f8ac 3000 	strh.w	r3, [ip]
10000d72:	88b3      	ldrh	r3, [r6, #4]
10000d74:	041c      	lsls	r4, r3, #16
10000d76:	f53f af6d 	bmi.w	10000c54 <alarm_pool_irq_handler+0x4c>
10000d7a:	6933      	ldr	r3, [r6, #16]
10000d7c:	f3ef 8210 	mrs	r2, PRIMASK
10000d80:	b672      	cpsid	i
10000d82:	e8d3 0fcf 	ldaexb	r0, [r3]
10000d86:	2101      	movs	r1, #1
10000d88:	2800      	cmp	r0, #0
10000d8a:	d1fa      	bne.n	10000d82 <alarm_pool_irq_handler+0x17a>
10000d8c:	e8c3 1f40 	strexb	r0, r1, [r3]
10000d90:	2800      	cmp	r0, #0
10000d92:	d1f6      	bne.n	10000d82 <alarm_pool_irq_handler+0x17a>
10000d94:	f3bf 8f5f 	dmb	sy
10000d98:	f64f 74ff 	movw	r4, #65535	@ 0xffff
10000d9c:	88b0      	ldrh	r0, [r6, #4]
10000d9e:	2300      	movs	r3, #0
10000da0:	6931      	ldr	r1, [r6, #16]
10000da2:	b200      	sxth	r0, r0
10000da4:	80b4      	strh	r4, [r6, #4]
10000da6:	e8c1 3f8f 	stlb	r3, [r1]
10000daa:	f382 8810 	msr	PRIMASK, r2
10000dae:	4298      	cmp	r0, r3
10000db0:	f6ff af50 	blt.w	10000c54 <alarm_pool_irq_handler+0x4c>
10000db4:	4607      	mov	r7, r0
10000db6:	46a9      	mov	r9, r5
10000db8:	6974      	ldr	r4, [r6, #20]
10000dba:	f106 0808 	add.w	r8, r6, #8
10000dbe:	eb07 0e47 	add.w	lr, r7, r7, lsl #1
10000dc2:	eb04 03ce 	add.w	r3, r4, lr, lsl #3
10000dc6:	e9d3 5002 	ldrd	r5, r0, [r3, #8]
10000dca:	f9b6 3008 	ldrsh.w	r3, [r6, #8]
10000dce:	46c4      	mov	ip, r8
10000dd0:	2b00      	cmp	r3, #0
10000dd2:	db13      	blt.n	10000dfc <alarm_pool_irq_handler+0x1f4>
10000dd4:	46b2      	mov	sl, r6
10000dd6:	9700      	str	r7, [sp, #0]
10000dd8:	e004      	b.n	10000de4 <alarm_pool_irq_handler+0x1dc>
10000dda:	f934 3036 	ldrsh.w	r3, [r4, r6, lsl #3]
10000dde:	4694      	mov	ip, r2
10000de0:	2b00      	cmp	r3, #0
10000de2:	db09      	blt.n	10000df8 <alarm_pool_irq_handler+0x1f0>
10000de4:	eb03 0643 	add.w	r6, r3, r3, lsl #1
10000de8:	eb04 02c6 	add.w	r2, r4, r6, lsl #3
10000dec:	e9d2 7102 	ldrd	r7, r1, [r2, #8]
10000df0:	42bd      	cmp	r5, r7
10000df2:	eb70 0101 	sbcs.w	r1, r0, r1
10000df6:	daf0      	bge.n	10000dda <alarm_pool_irq_handler+0x1d2>
10000df8:	4656      	mov	r6, sl
10000dfa:	9f00      	ldr	r7, [sp, #0]
10000dfc:	f8ac 7000 	strh.w	r7, [ip]
10000e00:	f934 703e 	ldrsh.w	r7, [r4, lr, lsl #3]
10000e04:	f824 303e 	strh.w	r3, [r4, lr, lsl #3]
10000e08:	2f00      	cmp	r7, #0
10000e0a:	dad8      	bge.n	10000dbe <alarm_pool_irq_handler+0x1b6>
10000e0c:	79b3      	ldrb	r3, [r6, #6]
10000e0e:	464d      	mov	r5, r9
10000e10:	2b00      	cmp	r3, #0
10000e12:	f43f af23 	beq.w	10000c5c <alarm_pool_irq_handler+0x54>
10000e16:	2300      	movs	r3, #0
10000e18:	71b3      	strb	r3, [r6, #6]
10000e1a:	f9b6 3008 	ldrsh.w	r3, [r6, #8]
10000e1e:	f106 0808 	add.w	r8, r6, #8
10000e22:	1c58      	adds	r0, r3, #1
10000e24:	d03d      	beq.n	10000ea2 <alarm_pool_irq_handler+0x29a>
10000e26:	461a      	mov	r2, r3
10000e28:	6977      	ldr	r7, [r6, #20]
10000e2a:	e003      	b.n	10000e34 <alarm_pool_irq_handler+0x22c>
10000e2c:	4680      	mov	r8, r0
10000e2e:	1c59      	adds	r1, r3, #1
10000e30:	f43f af16 	beq.w	10000c60 <alarm_pool_irq_handler+0x58>
10000e34:	eb03 0143 	add.w	r1, r3, r3, lsl #1
10000e38:	eb07 00c1 	add.w	r0, r7, r1, lsl #3
10000e3c:	f8b0 c002 	ldrh.w	ip, [r0, #2]
10000e40:	461c      	mov	r4, r3
10000e42:	f41c 4f00 	tst.w	ip, #32768	@ 0x8000
10000e46:	469e      	mov	lr, r3
10000e48:	f937 3031 	ldrsh.w	r3, [r7, r1, lsl #3]
10000e4c:	d0ee      	beq.n	10000e2c <alarm_pool_irq_handler+0x224>
10000e4e:	4294      	cmp	r4, r2
10000e50:	ed80 8b02 	vstr	d8, [r0, #8]
10000e54:	d005      	beq.n	10000e62 <alarm_pool_irq_handler+0x25a>
10000e56:	f8a8 3000 	strh.w	r3, [r8]
10000e5a:	8932      	ldrh	r2, [r6, #8]
10000e5c:	f827 2031 	strh.w	r2, [r7, r1, lsl #3]
10000e60:	8134      	strh	r4, [r6, #8]
10000e62:	4672      	mov	r2, lr
10000e64:	e7e3      	b.n	10000e2e <alarm_pool_irq_handler+0x226>
10000e66:	f838 3039 	ldrh.w	r3, [r8, r9, lsl #3]
10000e6a:	8133      	strh	r3, [r6, #8]
10000e6c:	6933      	ldr	r3, [r6, #16]
10000e6e:	f3ef 8210 	mrs	r2, PRIMASK
10000e72:	b672      	cpsid	i
10000e74:	e8d3 0fcf 	ldaexb	r0, [r3]
10000e78:	2101      	movs	r1, #1
10000e7a:	2800      	cmp	r0, #0
10000e7c:	d1fa      	bne.n	10000e74 <alarm_pool_irq_handler+0x26c>
10000e7e:	e8c3 1f40 	strexb	r0, r1, [r3]
10000e82:	2800      	cmp	r0, #0
10000e84:	d1f6      	bne.n	10000e74 <alarm_pool_irq_handler+0x26c>
10000e86:	f3bf 8f5f 	dmb	sy
10000e8a:	8873      	ldrh	r3, [r6, #2]
10000e8c:	6931      	ldr	r1, [r6, #16]
10000e8e:	f828 3039 	strh.w	r3, [r8, r9, lsl #3]
10000e92:	9b00      	ldr	r3, [sp, #0]
10000e94:	8073      	strh	r3, [r6, #2]
10000e96:	2300      	movs	r3, #0
10000e98:	e8c1 3f8f 	stlb	r3, [r1]
10000e9c:	f382 8810 	msr	PRIMASK, r2
10000ea0:	e6d4      	b.n	10000c4c <alarm_pool_irq_handler+0x44>
10000ea2:	bf40      	sev
10000ea4:	b005      	add	sp, #20
10000ea6:	ecbd 8b02 	vpop	{d8}
10000eaa:	e8bd 8ff0 	ldmia.w	sp!, {r4, r5, r6, r7, r8, r9, sl, fp, pc}
10000eae:	4628      	mov	r0, r5
10000eb0:	e9cd 2302 	strd	r2, r3, [sp, #8]
10000eb4:	f000 fa2e 	bl	10001314 <timer_time_us_64>
10000eb8:	9a02      	ldr	r2, [sp, #8]
10000eba:	9b03      	ldr	r3, [sp, #12]
10000ebc:	eb10 0e02 	adds.w	lr, r0, r2
10000ec0:	eb43 0a01 	adc.w	sl, r3, r1
10000ec4:	e726      	b.n	10000d14 <alarm_pool_irq_handler+0x10c>
10000ec6:	4608      	mov	r0, r1
10000ec8:	690b      	ldr	r3, [r1, #16]
10000eca:	9102      	str	r1, [sp, #8]
10000ecc:	4798      	blx	r3
10000ece:	2800      	cmp	r0, #0
10000ed0:	d0c9      	beq.n	10000e66 <alarm_pool_irq_handler+0x25e>
10000ed2:	9902      	ldr	r1, [sp, #8]
10000ed4:	e9d1 2300 	ldrd	r2, r3, [r1]
10000ed8:	e711      	b.n	10000cfe <alarm_pool_irq_handler+0xf6>
10000eda:	bf00      	nop
10000edc:	f3af 8000 	nop.w
10000ee0:	ffffffff 	.word	0xffffffff
10000ee4:	ffffffff 	.word	0xffffffff
10000ee8:	400b8000 	.word	0x400b8000
10000eec:	200019c4 	.word	0x200019c4
10000ef0:	400b0000 	.word	0x400b0000
10000ef4:	10000c09 	.word	0x10000c09

10000ef8 <runtime_init_default_alarm_pool>:
10000ef8:	e92d 4ff8 	stmdb	sp!, {r3, r4, r5, r6, r7, r8, r9, sl, fp, lr}
10000efc:	4c36      	ldr	r4, [pc, #216]	@ (10000fd8 <runtime_init_default_alarm_pool+0xe0>)
10000efe:	6925      	ldr	r5, [r4, #16]
10000f00:	b12d      	cbz	r5, 10000f0e <runtime_init_default_alarm_pool+0x16>
10000f02:	e8bd 4ff8 	ldmia.w	sp!, {r3, r4, r5, r6, r7, r8, r9, sl, fp, lr}
10000f06:	210a      	movs	r1, #10
10000f08:	4834      	ldr	r0, [pc, #208]	@ (10000fdc <runtime_init_default_alarm_pool+0xe4>)
10000f0a:	f7ff be17 	b.w	10000b3c <lock_init>
10000f0e:	f8df 80e4 	ldr.w	r8, [pc, #228]	@ 10000ff4 <runtime_init_default_alarm_pool+0xfc>
10000f12:	2103      	movs	r1, #3
10000f14:	4640      	mov	r0, r8
10000f16:	f000 f9eb 	bl	100012f0 <timer_hardware_alarm_claim>
10000f1a:	2603      	movs	r6, #3
10000f1c:	f8c4 800c 	str.w	r8, [r4, #12]
10000f20:	f7ff fc24 	bl	1000076c <next_striped_spin_lock_num>
10000f24:	f04f 4c50 	mov.w	ip, #3489660928	@ 0xd0000000
10000f28:	4b2d      	ldr	r3, [pc, #180]	@ (10000fe0 <runtime_init_default_alarm_pool+0xe8>)
10000f2a:	7026      	strb	r6, [r4, #0]
10000f2c:	4403      	add	r3, r0
10000f2e:	6123      	str	r3, [r4, #16]
10000f30:	f8dc 3000 	ldr.w	r3, [ip]
10000f34:	210f      	movs	r1, #15
10000f36:	7063      	strb	r3, [r4, #1]
10000f38:	6963      	ldr	r3, [r4, #20]
10000f3a:	8061      	strh	r1, [r4, #2]
10000f3c:	831d      	strh	r5, [r3, #24]
10000f3e:	f04f 0504 	mov.w	r5, #4
10000f42:	f8a3 5078 	strh.w	r5, [r3, #120]	@ 0x78
10000f46:	f04f 0505 	mov.w	r5, #5
10000f4a:	f8a3 5090 	strh.w	r5, [r3, #144]	@ 0x90
10000f4e:	f04f 0506 	mov.w	r5, #6
10000f52:	f8a3 50a8 	strh.w	r5, [r3, #168]	@ 0xa8
10000f56:	f04f 0507 	mov.w	r5, #7
10000f5a:	210e      	movs	r1, #14
10000f5c:	f64f 72ff 	movw	r2, #65535	@ 0xffff
10000f60:	2708      	movs	r7, #8
10000f62:	f04f 0e0a 	mov.w	lr, #10
10000f66:	f8a3 50c0 	strh.w	r5, [r3, #192]	@ 0xc0
10000f6a:	f04f 0901 	mov.w	r9, #1
10000f6e:	f04f 0c0c 	mov.w	ip, #12
10000f72:	f04f 0b02 	mov.w	fp, #2
10000f76:	f04f 0a09 	mov.w	sl, #9
10000f7a:	200d      	movs	r0, #13
10000f7c:	f04f 050b 	mov.w	r5, #11
10000f80:	f8a3 1168 	strh.w	r1, [r3, #360]	@ 0x168
10000f84:	4917      	ldr	r1, [pc, #92]	@ (10000fe4 <runtime_init_default_alarm_pool+0xec>)
10000f86:	80a2      	strh	r2, [r4, #4]
10000f88:	f8a3 e108 	strh.w	lr, [r3, #264]	@ 0x108
10000f8c:	60a1      	str	r1, [r4, #8]
10000f8e:	f8a3 b048 	strh.w	fp, [r3, #72]	@ 0x48
10000f92:	f8a3 a0f0 	strh.w	sl, [r3, #240]	@ 0xf0
10000f96:	f8a3 5120 	strh.w	r5, [r3, #288]	@ 0x120
10000f9a:	f8a3 c138 	strh.w	ip, [r3, #312]	@ 0x138
10000f9e:	f8a3 0150 	strh.w	r0, [r3, #336]	@ 0x150
10000fa2:	f8a3 9030 	strh.w	r9, [r3, #48]	@ 0x30
10000fa6:	f8a3 6060 	strh.w	r6, [r3, #96]	@ 0x60
10000faa:	f8a3 70d8 	strh.w	r7, [r3, #216]	@ 0xd8
10000fae:	801a      	strh	r2, [r3, #0]
10000fb0:	4b0d      	ldr	r3, [pc, #52]	@ (10000fe8 <runtime_init_default_alarm_pool+0xf0>)
10000fb2:	4630      	mov	r0, r6
10000fb4:	f8c8 7020 	str.w	r7, [r8, #32]
10000fb8:	490c      	ldr	r1, [pc, #48]	@ (10000fec <runtime_init_default_alarm_pool+0xf4>)
10000fba:	60dc      	str	r4, [r3, #12]
10000fbc:	f7ff fc3c 	bl	10000838 <irq_set_exclusive_handler>
10000fc0:	4649      	mov	r1, r9
10000fc2:	4630      	mov	r0, r6
10000fc4:	f7ff fc22 	bl	1000080c <irq_set_enabled>
10000fc8:	4b09      	ldr	r3, [pc, #36]	@ (10000ff0 <runtime_init_default_alarm_pool+0xf8>)
10000fca:	210a      	movs	r1, #10
10000fcc:	641f      	str	r7, [r3, #64]	@ 0x40
10000fce:	4803      	ldr	r0, [pc, #12]	@ (10000fdc <runtime_init_default_alarm_pool+0xe4>)
10000fd0:	e8bd 4ff8 	ldmia.w	sp!, {r3, r4, r5, r6, r7, r8, r9, sl, fp, lr}
10000fd4:	f7ff bdb2 	b.w	10000b3c <lock_init>
10000fd8:	2000117c 	.word	0x2000117c
10000fdc:	200019ec 	.word	0x200019ec
10000fe0:	20001420 	.word	0x20001420
10000fe4:	0010ffff 	.word	0x0010ffff
10000fe8:	200019c4 	.word	0x200019c4
10000fec:	10000c09 	.word	0x10000c09
10000ff0:	400b2000 	.word	0x400b2000
10000ff4:	400b0000 	.word	0x400b0000

10000ff8 <alarm_pool_add_alarm_at_force_in_context>:
10000ff8:	4601      	mov	r1, r0
10000ffa:	b5f0      	push	{r4, r5, r6, r7, lr}
10000ffc:	6900      	ldr	r0, [r0, #16]
10000ffe:	f3ef 8710 	mrs	r7, PRIMASK
10001002:	b672      	cpsid	i
10001004:	e8d0 5fcf 	ldaexb	r5, [r0]
10001008:	2401      	movs	r4, #1
1000100a:	2d00      	cmp	r5, #0
1000100c:	d1fa      	bne.n	10001004 <alarm_pool_add_alarm_at_force_in_context+0xc>
1000100e:	e8c0 4f45 	strexb	r5, r4, [r0]
10001012:	2d00      	cmp	r5, #0
10001014:	d1f6      	bne.n	10001004 <alarm_pool_add_alarm_at_force_in_context+0xc>
10001016:	f3bf 8f5f 	dmb	sy
1000101a:	f9b1 e002 	ldrsh.w	lr, [r1, #2]
1000101e:	694c      	ldr	r4, [r1, #20]
10001020:	eb0e 0c4e 	add.w	ip, lr, lr, lsl #1
10001024:	f1be 0f00 	cmp.w	lr, #0
10001028:	ea4f 05cc 	mov.w	r5, ip, lsl #3
1000102c:	6908      	ldr	r0, [r1, #16]
1000102e:	eb04 0ccc 	add.w	ip, r4, ip, lsl #3
10001032:	db3c      	blt.n	100010ae <alarm_pool_add_alarm_at_force_in_context+0xb6>
10001034:	5b66      	ldrh	r6, [r4, r5]
10001036:	804e      	strh	r6, [r1, #2]
10001038:	2600      	movs	r6, #0
1000103a:	e8c0 6f8f 	stlb	r6, [r0]
1000103e:	f387 8810 	msr	PRIMASK, r7
10001042:	f8bc 0002 	ldrh.w	r0, [ip, #2]
10001046:	e9cc 2302 	strd	r2, r3, [ip, #8]
1000104a:	3001      	adds	r0, #1
1000104c:	f3c0 000e 	ubfx	r0, r0, #0, #15
10001050:	2801      	cmp	r0, #1
10001052:	bf38      	it	cc
10001054:	2001      	movcc	r0, #1
10001056:	9b05      	ldr	r3, [sp, #20]
10001058:	f8ac 0002 	strh.w	r0, [ip, #2]
1000105c:	f8cc 3010 	str.w	r3, [ip, #16]
10001060:	9b06      	ldr	r3, [sp, #24]
10001062:	ea40 400e 	orr.w	r0, r0, lr, lsl #16
10001066:	f8cc 3014 	str.w	r3, [ip, #20]
1000106a:	690b      	ldr	r3, [r1, #16]
1000106c:	f3ef 8210 	mrs	r2, PRIMASK
10001070:	b672      	cpsid	i
10001072:	e8d3 cfcf 	ldaexb	ip, [r3]
10001076:	2701      	movs	r7, #1
10001078:	f1bc 0f00 	cmp.w	ip, #0
1000107c:	d1f9      	bne.n	10001072 <alarm_pool_add_alarm_at_force_in_context+0x7a>
1000107e:	e8c3 7f4c 	strexb	ip, r7, [r3]
10001082:	f1bc 0f00 	cmp.w	ip, #0
10001086:	d1f4      	bne.n	10001072 <alarm_pool_add_alarm_at_force_in_context+0x7a>
10001088:	f3bf 8f5f 	dmb	sy
1000108c:	888b      	ldrh	r3, [r1, #4]
1000108e:	5363      	strh	r3, [r4, r5]
10001090:	f8a1 e004 	strh.w	lr, [r1, #4]
10001094:	690b      	ldr	r3, [r1, #16]
10001096:	e8c3 6f8f 	stlb	r6, [r3]
1000109a:	f382 8810 	msr	PRIMASK, r2
1000109e:	2201      	movs	r2, #1
100010a0:	68cb      	ldr	r3, [r1, #12]
100010a2:	7809      	ldrb	r1, [r1, #0]
100010a4:	f503 5301 	add.w	r3, r3, #8256	@ 0x2040
100010a8:	408a      	lsls	r2, r1
100010aa:	605a      	str	r2, [r3, #4]
100010ac:	bdf0      	pop	{r4, r5, r6, r7, pc}
100010ae:	2300      	movs	r3, #0
100010b0:	e8c0 3f8f 	stlb	r3, [r0]
100010b4:	f387 8810 	msr	PRIMASK, r7
100010b8:	f04f 30ff 	mov.w	r0, #4294967295
100010bc:	bdf0      	pop	{r4, r5, r6, r7, pc}
100010be:	bf00      	nop

100010c0 <alarm_pool_cancel_alarm>:
100010c0:	4603      	mov	r3, r0
100010c2:	8940      	ldrh	r0, [r0, #10]
100010c4:	ebb0 4f21 	cmp.w	r0, r1, asr #16
100010c8:	dd37      	ble.n	1000113a <alarm_pool_cancel_alarm+0x7a>
100010ca:	6958      	ldr	r0, [r3, #20]
100010cc:	140a      	asrs	r2, r1, #16
100010ce:	eb02 0242 	add.w	r2, r2, r2, lsl #1
100010d2:	b510      	push	{r4, lr}
100010d4:	eb00 00c2 	add.w	r0, r0, r2, lsl #3
100010d8:	691c      	ldr	r4, [r3, #16]
100010da:	f3ef 8c10 	mrs	ip, PRIMASK
100010de:	b672      	cpsid	i
100010e0:	e8d4 efcf 	ldaexb	lr, [r4]
100010e4:	2201      	movs	r2, #1
100010e6:	f1be 0f00 	cmp.w	lr, #0
100010ea:	d1f9      	bne.n	100010e0 <alarm_pool_cancel_alarm+0x20>
100010ec:	e8c4 2f4e 	strexb	lr, r2, [r4]
100010f0:	f1be 0f00 	cmp.w	lr, #0
100010f4:	d1f4      	bne.n	100010e0 <alarm_pool_cancel_alarm+0x20>
100010f6:	f3bf 8f5f 	dmb	sy
100010fa:	8842      	ldrh	r2, [r0, #2]
100010fc:	b289      	uxth	r1, r1
100010fe:	b292      	uxth	r2, r2
10001100:	428a      	cmp	r2, r1
10001102:	d007      	beq.n	10001114 <alarm_pool_cancel_alarm+0x54>
10001104:	2200      	movs	r2, #0
10001106:	691b      	ldr	r3, [r3, #16]
10001108:	e8c3 2f8f 	stlb	r2, [r3]
1000110c:	f38c 8810 	msr	PRIMASK, ip
10001110:	2000      	movs	r0, #0
10001112:	bd10      	pop	{r4, pc}
10001114:	f442 4200 	orr.w	r2, r2, #32768	@ 0x8000
10001118:	8042      	strh	r2, [r0, #2]
1000111a:	2101      	movs	r1, #1
1000111c:	2200      	movs	r2, #0
1000111e:	6918      	ldr	r0, [r3, #16]
10001120:	7199      	strb	r1, [r3, #6]
10001122:	e8c0 2f8f 	stlb	r2, [r0]
10001126:	f38c 8810 	msr	PRIMASK, ip
1000112a:	781c      	ldrb	r4, [r3, #0]
1000112c:	68da      	ldr	r2, [r3, #12]
1000112e:	4608      	mov	r0, r1
10001130:	f502 5301 	add.w	r3, r2, #8256	@ 0x2040
10001134:	40a1      	lsls	r1, r4
10001136:	6059      	str	r1, [r3, #4]
10001138:	bd10      	pop	{r4, pc}
1000113a:	2000      	movs	r0, #0
1000113c:	4770      	bx	lr
1000113e:	bf00      	nop

10001140 <sleep_ms>:
10001140:	e92d 41f0 	stmdb	sp!, {r4, r5, r6, r7, r8, lr}
10001144:	b082      	sub	sp, #8
10001146:	4606      	mov	r6, r0
10001148:	f000 f8ec 	bl	10001324 <time_us_64>
1000114c:	f44f 737a 	mov.w	r3, #1000	@ 0x3e8
10001150:	4604      	mov	r4, r0
10001152:	f04f 30ff 	mov.w	r0, #4294967295
10001156:	f06f 4200 	mvn.w	r2, #2147483648	@ 0x80000000
1000115a:	fbe6 4103 	umlal	r4, r1, r6, r3
1000115e:	42a0      	cmp	r0, r4
10001160:	eb72 0301 	sbcs.w	r3, r2, r1
10001164:	bf3a      	itte	cc
10001166:	4604      	movcc	r4, r0
10001168:	4615      	movcc	r5, r2
1000116a:	460d      	movcs	r5, r1
1000116c:	1fa6      	subs	r6, r4, #6
1000116e:	f145 37ff 	adc.w	r7, r5, #4294967295
10001172:	42b4      	cmp	r4, r6
10001174:	eb75 0307 	sbcs.w	r3, r5, r7
10001178:	bf3c      	itt	cc
1000117a:	2600      	movcc	r6, #0
1000117c:	4637      	movcc	r7, r6
1000117e:	f000 f8d1 	bl	10001324 <time_us_64>
10001182:	1a30      	subs	r0, r6, r0
10001184:	eb67 0101 	sbc.w	r1, r7, r1
10001188:	2801      	cmp	r0, #1
1000118a:	f171 0100 	sbcs.w	r1, r1, #0
1000118e:	da06      	bge.n	1000119e <sleep_ms+0x5e>
10001190:	4620      	mov	r0, r4
10001192:	4629      	mov	r1, r5
10001194:	b002      	add	sp, #8
10001196:	e8bd 41f0 	ldmia.w	sp!, {r4, r5, r6, r7, r8, lr}
1000119a:	f000 b8cd 	b.w	10001338 <busy_wait_until>
1000119e:	f000 f8c1 	bl	10001324 <time_us_64>
100011a2:	4286      	cmp	r6, r0
100011a4:	eb67 0101 	sbc.w	r1, r7, r1
100011a8:	2900      	cmp	r1, #0
100011aa:	db0a      	blt.n	100011c2 <sleep_ms+0x82>
100011ac:	2100      	movs	r1, #0
100011ae:	4b17      	ldr	r3, [pc, #92]	@ (1000120c <sleep_ms+0xcc>)
100011b0:	4632      	mov	r2, r6
100011b2:	9300      	str	r3, [sp, #0]
100011b4:	4816      	ldr	r0, [pc, #88]	@ (10001210 <sleep_ms+0xd0>)
100011b6:	463b      	mov	r3, r7
100011b8:	9101      	str	r1, [sp, #4]
100011ba:	f7ff ff1d 	bl	10000ff8 <alarm_pool_add_alarm_at_force_in_context>
100011be:	3001      	adds	r0, #1
100011c0:	d0e6      	beq.n	10001190 <sleep_ms+0x50>
100011c2:	f04f 0c00 	mov.w	ip, #0
100011c6:	4a13      	ldr	r2, [pc, #76]	@ (10001214 <sleep_ms+0xd4>)
100011c8:	4913      	ldr	r1, [pc, #76]	@ (10001218 <sleep_ms+0xd8>)
100011ca:	6a53      	ldr	r3, [r2, #36]	@ 0x24
100011cc:	429f      	cmp	r7, r3
100011ce:	d804      	bhi.n	100011da <sleep_ms+0x9a>
100011d0:	6a90      	ldr	r0, [r2, #40]	@ 0x28
100011d2:	42b0      	cmp	r0, r6
100011d4:	d2dc      	bcs.n	10001190 <sleep_ms+0x50>
100011d6:	429f      	cmp	r7, r3
100011d8:	d1da      	bne.n	10001190 <sleep_ms+0x50>
100011da:	680b      	ldr	r3, [r1, #0]
100011dc:	f3ef 8010 	mrs	r0, PRIMASK
100011e0:	b672      	cpsid	i
100011e2:	e8d3 8fcf 	ldaexb	r8, [r3]
100011e6:	f05f 0e01 	movs.w	lr, #1
100011ea:	f1b8 0f00 	cmp.w	r8, #0
100011ee:	d1f8      	bne.n	100011e2 <sleep_ms+0xa2>
100011f0:	e8c3 ef48 	strexb	r8, lr, [r3]
100011f4:	f1b8 0f00 	cmp.w	r8, #0
100011f8:	d1f3      	bne.n	100011e2 <sleep_ms+0xa2>
100011fa:	f3bf 8f5f 	dmb	sy
100011fe:	680b      	ldr	r3, [r1, #0]
10001200:	e8c3 cf8f 	stlb	ip, [r3]
10001204:	f380 8810 	msr	PRIMASK, r0
10001208:	bf20      	wfe
1000120a:	e7de      	b.n	100011ca <sleep_ms+0x8a>
1000120c:	10000bcd 	.word	0x10000bcd
10001210:	2000117c 	.word	0x2000117c
10001214:	400b0000 	.word	0x400b0000
10001218:	200019ec 	.word	0x200019ec

1000121c <best_effort_wfe_or_timeout>:
1000121c:	e92d 43f0 	stmdb	sp!, {r4, r5, r6, r7, r8, r9, lr}
10001220:	4606      	mov	r6, r0
10001222:	460d      	mov	r5, r1
10001224:	b083      	sub	sp, #12
10001226:	f3ef 8405 	mrs	r4, IPSR
1000122a:	b2e4      	uxtb	r4, r4
1000122c:	b13c      	cbz	r4, 1000123e <best_effort_wfe_or_timeout+0x22>
1000122e:	4b2d      	ldr	r3, [pc, #180]	@ (100012e4 <best_effort_wfe_or_timeout+0xc8>)
10001230:	6a5a      	ldr	r2, [r3, #36]	@ 0x24
10001232:	42aa      	cmp	r2, r5
10001234:	d21c      	bcs.n	10001270 <best_effort_wfe_or_timeout+0x54>
10001236:	2000      	movs	r0, #0
10001238:	b003      	add	sp, #12
1000123a:	e8bd 83f0 	ldmia.w	sp!, {r4, r5, r6, r7, r8, r9, pc}
1000123e:	4f2a      	ldr	r7, [pc, #168]	@ (100012e8 <best_effort_wfe_or_timeout+0xcc>)
10001240:	f8d7 900c 	ldr.w	r9, [r7, #12]
10001244:	f897 8000 	ldrb.w	r8, [r7]
10001248:	4648      	mov	r0, r9
1000124a:	f000 f863 	bl	10001314 <timer_time_us_64>
1000124e:	f108 0804 	add.w	r8, r8, #4
10001252:	f859 3028 	ldr.w	r3, [r9, r8, lsl #2]
10001256:	1a1b      	subs	r3, r3, r0
10001258:	1a30      	subs	r0, r6, r0
1000125a:	eb65 0101 	sbc.w	r1, r5, r1
1000125e:	4298      	cmp	r0, r3
10001260:	f171 0100 	sbcs.w	r1, r1, #0
10001264:	db10      	blt.n	10001288 <best_effort_wfe_or_timeout+0x6c>
10001266:	bf20      	wfe
10001268:	4b1e      	ldr	r3, [pc, #120]	@ (100012e4 <best_effort_wfe_or_timeout+0xc8>)
1000126a:	6a5a      	ldr	r2, [r3, #36]	@ 0x24
1000126c:	42aa      	cmp	r2, r5
1000126e:	d3e2      	bcc.n	10001236 <best_effort_wfe_or_timeout+0x1a>
10001270:	bf14      	ite	ne
10001272:	2401      	movne	r4, #1
10001274:	2400      	moveq	r4, #0
10001276:	6a9b      	ldr	r3, [r3, #40]	@ 0x28
10001278:	42b3      	cmp	r3, r6
1000127a:	bf34      	ite	cc
1000127c:	4620      	movcc	r0, r4
1000127e:	f044 0001 	orrcs.w	r0, r4, #1
10001282:	b003      	add	sp, #12
10001284:	e8bd 83f0 	ldmia.w	sp!, {r4, r5, r6, r7, r8, r9, pc}
10001288:	f000 f84c 	bl	10001324 <time_us_64>
1000128c:	4286      	cmp	r6, r0
1000128e:	eb65 0101 	sbc.w	r1, r5, r1
10001292:	2900      	cmp	r1, #0
10001294:	db14      	blt.n	100012c0 <best_effort_wfe_or_timeout+0xa4>
10001296:	4b15      	ldr	r3, [pc, #84]	@ (100012ec <best_effort_wfe_or_timeout+0xd0>)
10001298:	4638      	mov	r0, r7
1000129a:	e9cd 3400 	strd	r3, r4, [sp]
1000129e:	4632      	mov	r2, r6
100012a0:	462b      	mov	r3, r5
100012a2:	f7ff fea9 	bl	10000ff8 <alarm_pool_add_alarm_at_force_in_context>
100012a6:	1e01      	subs	r1, r0, #0
100012a8:	dd0a      	ble.n	100012c0 <best_effort_wfe_or_timeout+0xa4>
100012aa:	4b0e      	ldr	r3, [pc, #56]	@ (100012e4 <best_effort_wfe_or_timeout+0xc8>)
100012ac:	6a5a      	ldr	r2, [r3, #36]	@ 0x24
100012ae:	42aa      	cmp	r2, r5
100012b0:	d316      	bcc.n	100012e0 <best_effort_wfe_or_timeout+0xc4>
100012b2:	6a9b      	ldr	r3, [r3, #40]	@ 0x28
100012b4:	42b3      	cmp	r3, r6
100012b6:	d311      	bcc.n	100012dc <best_effort_wfe_or_timeout+0xc0>
100012b8:	480b      	ldr	r0, [pc, #44]	@ (100012e8 <best_effort_wfe_or_timeout+0xcc>)
100012ba:	f7ff ff01 	bl	100010c0 <alarm_pool_cancel_alarm>
100012be:	e7b6      	b.n	1000122e <best_effort_wfe_or_timeout+0x12>
100012c0:	4b08      	ldr	r3, [pc, #32]	@ (100012e4 <best_effort_wfe_or_timeout+0xc8>)
100012c2:	6a5c      	ldr	r4, [r3, #36]	@ 0x24
100012c4:	42ac      	cmp	r4, r5
100012c6:	d3b6      	bcc.n	10001236 <best_effort_wfe_or_timeout+0x1a>
100012c8:	1b64      	subs	r4, r4, r5
100012ca:	bf18      	it	ne
100012cc:	2401      	movne	r4, #1
100012ce:	6a9b      	ldr	r3, [r3, #40]	@ 0x28
100012d0:	42b3      	cmp	r3, r6
100012d2:	bf34      	ite	cc
100012d4:	4620      	movcc	r0, r4
100012d6:	f044 0001 	orrcs.w	r0, r4, #1
100012da:	e7ad      	b.n	10001238 <best_effort_wfe_or_timeout+0x1c>
100012dc:	42aa      	cmp	r2, r5
100012de:	d1eb      	bne.n	100012b8 <best_effort_wfe_or_timeout+0x9c>
100012e0:	bf20      	wfe
100012e2:	e7e9      	b.n	100012b8 <best_effort_wfe_or_timeout+0x9c>
100012e4:	400b0000 	.word	0x400b0000
100012e8:	2000117c 	.word	0x2000117c
100012ec:	10000bcd 	.word	0x10000bcd

100012f0 <timer_hardware_alarm_claim>:
100012f0:	b410      	push	{r4}
100012f2:	4b05      	ldr	r3, [pc, #20]	@ (10001308 <timer_hardware_alarm_claim+0x18>)
100012f4:	4c05      	ldr	r4, [pc, #20]	@ (1000130c <timer_hardware_alarm_claim+0x1c>)
100012f6:	4a06      	ldr	r2, [pc, #24]	@ (10001310 <timer_hardware_alarm_claim+0x20>)
100012f8:	42a0      	cmp	r0, r4
100012fa:	bf14      	ite	ne
100012fc:	4618      	movne	r0, r3
100012fe:	1c58      	addeq	r0, r3, #1
10001300:	f85d 4b04 	ldr.w	r4, [sp], #4
10001304:	f7ff b9c6 	b.w	10000694 <hw_claim_or_assert>
10001308:	2000156c 	.word	0x2000156c
1000130c:	400b8000 	.word	0x400b8000
10001310:	10003e1c 	.word	0x10003e1c

10001314 <timer_time_us_64>:
10001314:	4603      	mov	r3, r0
10001316:	6a41      	ldr	r1, [r0, #36]	@ 0x24
10001318:	460a      	mov	r2, r1
1000131a:	6a98      	ldr	r0, [r3, #40]	@ 0x28
1000131c:	6a59      	ldr	r1, [r3, #36]	@ 0x24
1000131e:	428a      	cmp	r2, r1
10001320:	d1fa      	bne.n	10001318 <timer_time_us_64+0x4>
10001322:	4770      	bx	lr

10001324 <time_us_64>:
10001324:	4b03      	ldr	r3, [pc, #12]	@ (10001334 <time_us_64+0x10>)
10001326:	6a59      	ldr	r1, [r3, #36]	@ 0x24
10001328:	460a      	mov	r2, r1
1000132a:	6a98      	ldr	r0, [r3, #40]	@ 0x28
1000132c:	6a59      	ldr	r1, [r3, #36]	@ 0x24
1000132e:	4291      	cmp	r1, r2
10001330:	d1fa      	bne.n	10001328 <time_us_64+0x4>
10001332:	4770      	bx	lr
10001334:	400b0000 	.word	0x400b0000

10001338 <busy_wait_until>:
10001338:	4a07      	ldr	r2, [pc, #28]	@ (10001358 <busy_wait_until+0x20>)
1000133a:	6a53      	ldr	r3, [r2, #36]	@ 0x24
1000133c:	4299      	cmp	r1, r3
1000133e:	d8fc      	bhi.n	1000133a <busy_wait_until+0x2>
10001340:	4299      	cmp	r1, r3
10001342:	d107      	bne.n	10001354 <busy_wait_until+0x1c>
10001344:	4b04      	ldr	r3, [pc, #16]	@ (10001358 <busy_wait_until+0x20>)
10001346:	e002      	b.n	1000134e <busy_wait_until+0x16>
10001348:	6a5a      	ldr	r2, [r3, #36]	@ 0x24
1000134a:	4291      	cmp	r1, r2
1000134c:	d102      	bne.n	10001354 <busy_wait_until+0x1c>
1000134e:	6a9a      	ldr	r2, [r3, #40]	@ 0x28
10001350:	4290      	cmp	r0, r2
10001352:	d8f9      	bhi.n	10001348 <busy_wait_until+0x10>
10001354:	4770      	bx	lr
10001356:	bf00      	nop
10001358:	400b0000 	.word	0x400b0000

1000135c <clock_configure_undivided>:
1000135c:	eb00 0c40 	add.w	ip, r0, r0, lsl #1
10001360:	ea4f 0c8c 	mov.w	ip, ip, lsl #2
10001364:	f10c 4c80 	add.w	ip, ip, #1073741824	@ 0x40000000
10001368:	f50c 3c80 	add.w	ip, ip, #65536	@ 0x10000
1000136c:	b5f0      	push	{r4, r5, r6, r7, lr}
1000136e:	4616      	mov	r6, r2
10001370:	f8dc 2004 	ldr.w	r2, [ip, #4]
10001374:	1f05      	subs	r5, r0, #4
10001376:	f5b2 3f80 	cmp.w	r2, #65536	@ 0x10000
1000137a:	bf38      	it	cc
1000137c:	f44f 3280 	movcc.w	r2, #65536	@ 0x10000
10001380:	b2ed      	uxtb	r5, r5
10001382:	bf38      	it	cc
10001384:	f8cc 2004 	strcc.w	r2, [ip, #4]
10001388:	2d01      	cmp	r5, #1
1000138a:	d92a      	bls.n	100013e2 <clock_configure_undivided+0x86>
1000138c:	f44f 6700 	mov.w	r7, #2048	@ 0x800
10001390:	4c25      	ldr	r4, [pc, #148]	@ (10001428 <clock_configure_undivided+0xcc>)
10001392:	f50c 5240 	add.w	r2, ip, #12288	@ 0x3000
10001396:	6017      	str	r7, [r2, #0]
10001398:	f854 2020 	ldr.w	r2, [r4, r0, lsl #2]
1000139c:	b9b2      	cbnz	r2, 100013cc <clock_configure_undivided+0x70>
1000139e:	f8dc 2000 	ldr.w	r2, [ip]
100013a2:	2d01      	cmp	r5, #1
100013a4:	ea82 1246 	eor.w	r2, r2, r6, lsl #5
100013a8:	f002 02e0 	and.w	r2, r2, #224	@ 0xe0
100013ac:	f50c 5680 	add.w	r6, ip, #4096	@ 0x1000
100013b0:	6032      	str	r2, [r6, #0]
100013b2:	d92a      	bls.n	1000140a <clock_configure_undivided+0xae>
100013b4:	f44f 6100 	mov.w	r1, #2048	@ 0x800
100013b8:	f844 3020 	str.w	r3, [r4, r0, lsl #2]
100013bc:	f44f 3380 	mov.w	r3, #65536	@ 0x10000
100013c0:	f50c 5200 	add.w	r2, ip, #8192	@ 0x2000
100013c4:	6011      	str	r1, [r2, #0]
100013c6:	f8cc 3004 	str.w	r3, [ip, #4]
100013ca:	bdf0      	pop	{r4, r5, r6, r7, pc}
100013cc:	6967      	ldr	r7, [r4, #20]
100013ce:	fbb7 fef2 	udiv	lr, r7, r2
100013d2:	f10e 0e01 	add.w	lr, lr, #1
100013d6:	eb0e 0e4e 	add.w	lr, lr, lr, lsl #1
100013da:	f1be 0e03 	subs.w	lr, lr, #3
100013de:	d2fc      	bcs.n	100013da <clock_configure_undivided+0x7e>
100013e0:	e7dd      	b.n	1000139e <clock_configure_undivided+0x42>
100013e2:	2901      	cmp	r1, #1
100013e4:	d1d2      	bne.n	1000138c <clock_configure_undivided+0x30>
100013e6:	2403      	movs	r4, #3
100013e8:	f50c 5240 	add.w	r2, ip, #12288	@ 0x3000
100013ec:	6014      	str	r4, [r2, #0]
100013ee:	f8dc 2008 	ldr.w	r2, [ip, #8]
100013f2:	07d2      	lsls	r2, r2, #31
100013f4:	d5fb      	bpl.n	100013ee <clock_configure_undivided+0x92>
100013f6:	f8dc 2000 	ldr.w	r2, [ip]
100013fa:	4c0b      	ldr	r4, [pc, #44]	@ (10001428 <clock_configure_undivided+0xcc>)
100013fc:	ea82 1246 	eor.w	r2, r2, r6, lsl #5
10001400:	f002 02e0 	and.w	r2, r2, #224	@ 0xe0
10001404:	f50c 5680 	add.w	r6, ip, #4096	@ 0x1000
10001408:	6032      	str	r2, [r6, #0]
1000140a:	2201      	movs	r2, #1
1000140c:	f8dc 5000 	ldr.w	r5, [ip]
10001410:	404d      	eors	r5, r1
10001412:	f005 0503 	and.w	r5, r5, #3
10001416:	6035      	str	r5, [r6, #0]
10001418:	fa02 f101 	lsl.w	r1, r2, r1
1000141c:	f8dc 2008 	ldr.w	r2, [ip, #8]
10001420:	420a      	tst	r2, r1
10001422:	d0fb      	beq.n	1000141c <clock_configure_undivided+0xc0>
10001424:	e7c6      	b.n	100013b4 <clock_configure_undivided+0x58>
10001426:	bf00      	nop
10001428:	20001570 	.word	0x20001570

1000142c <clock_get_hz>:
1000142c:	4b01      	ldr	r3, [pc, #4]	@ (10001434 <clock_get_hz+0x8>)
1000142e:	f853 0020 	ldr.w	r0, [r3, r0, lsl #2]
10001432:	4770      	bx	lr
10001434:	20001570 	.word	0x20001570

10001438 <pll_init>:
10001438:	b470      	push	{r4, r5, r6}
1000143a:	9d03      	ldr	r5, [sp, #12]
1000143c:	6804      	ldr	r4, [r0, #0]
1000143e:	032d      	lsls	r5, r5, #12
10001440:	ea45 4503 	orr.w	r5, r5, r3, lsl #16
10001444:	4b1b      	ldr	r3, [pc, #108]	@ (100014b4 <pll_init+0x7c>)
10001446:	2c00      	cmp	r4, #0
10001448:	fbb3 f3f1 	udiv	r3, r3, r1
1000144c:	fbb2 f6f3 	udiv	r6, r2, r3
10001450:	db1f      	blt.n	10001492 <pll_init+0x5a>
10001452:	4a19      	ldr	r2, [pc, #100]	@ (100014b8 <pll_init+0x80>)
10001454:	4b19      	ldr	r3, [pc, #100]	@ (100014bc <pll_init+0x84>)
10001456:	4290      	cmp	r0, r2
10001458:	bf14      	ite	ne
1000145a:	f44f 4280 	movne.w	r2, #16384	@ 0x4000
1000145e:	f44f 4200 	moveq.w	r2, #32768	@ 0x8000
10001462:	4c17      	ldr	r4, [pc, #92]	@ (100014c0 <pll_init+0x88>)
10001464:	601a      	str	r2, [r3, #0]
10001466:	f503 5380 	add.w	r3, r3, #4096	@ 0x1000
1000146a:	601a      	str	r2, [r3, #0]
1000146c:	68a3      	ldr	r3, [r4, #8]
1000146e:	ea32 0303 	bics.w	r3, r2, r3
10001472:	d1fb      	bne.n	1000146c <pll_init+0x34>
10001474:	2221      	movs	r2, #33	@ 0x21
10001476:	f500 5340 	add.w	r3, r0, #12288	@ 0x3000
1000147a:	3304      	adds	r3, #4
1000147c:	6001      	str	r1, [r0, #0]
1000147e:	6086      	str	r6, [r0, #8]
10001480:	601a      	str	r2, [r3, #0]
10001482:	6802      	ldr	r2, [r0, #0]
10001484:	2a00      	cmp	r2, #0
10001486:	dafc      	bge.n	10001482 <pll_init+0x4a>
10001488:	2208      	movs	r2, #8
1000148a:	60c5      	str	r5, [r0, #12]
1000148c:	601a      	str	r2, [r3, #0]
1000148e:	bc70      	pop	{r4, r5, r6}
10001490:	4770      	bx	lr
10001492:	6803      	ldr	r3, [r0, #0]
10001494:	f003 033f 	and.w	r3, r3, #63	@ 0x3f
10001498:	428b      	cmp	r3, r1
1000149a:	d1da      	bne.n	10001452 <pll_init+0x1a>
1000149c:	6883      	ldr	r3, [r0, #8]
1000149e:	f3c3 030b 	ubfx	r3, r3, #0, #12
100014a2:	42b3      	cmp	r3, r6
100014a4:	d1d5      	bne.n	10001452 <pll_init+0x1a>
100014a6:	68c3      	ldr	r3, [r0, #12]
100014a8:	f403 23ee 	and.w	r3, r3, #487424	@ 0x77000
100014ac:	42ab      	cmp	r3, r5
100014ae:	d1d0      	bne.n	10001452 <pll_init+0x1a>
100014b0:	e7ed      	b.n	1000148e <pll_init+0x56>
100014b2:	bf00      	nop
100014b4:	00b71b00 	.word	0x00b71b00
100014b8:	40058000 	.word	0x40058000
100014bc:	40022000 	.word	0x40022000
100014c0:	40020000 	.word	0x40020000

100014c4 <tick_start>:
100014c4:	2301      	movs	r3, #1
100014c6:	eb00 0040 	add.w	r0, r0, r0, lsl #1
100014ca:	0080      	lsls	r0, r0, #2
100014cc:	f100 4080 	add.w	r0, r0, #1073741824	@ 0x40000000
100014d0:	f500 1084 	add.w	r0, r0, #1081344	@ 0x108000
100014d4:	6041      	str	r1, [r0, #4]
100014d6:	6003      	str	r3, [r0, #0]
100014d8:	4770      	bx	lr
100014da:	bf00      	nop

100014dc <rom_func_lookup>:
100014dc:	2300      	movs	r3, #0
100014de:	8adb      	ldrh	r3, [r3, #22]
100014e0:	2200      	movs	r2, #0
100014e2:	e842 f200 	tt	r2, r2
100014e6:	0252      	lsls	r2, r2, #9
100014e8:	d401      	bmi.n	100014ee <rom_func_lookup+0x12>
100014ea:	2110      	movs	r1, #16
100014ec:	4718      	bx	r3
100014ee:	2104      	movs	r1, #4
100014f0:	4718      	bx	r3
100014f2:	bf00      	nop

100014f4 <runtime_init_bootrom_locking_enable>:
100014f4:	4a03      	ldr	r2, [pc, #12]	@ (10001504 <runtime_init_bootrom_locking_enable+0x10>)
100014f6:	f8d2 3828 	ldr.w	r3, [r2, #2088]	@ 0x828
100014fa:	2b00      	cmp	r3, #0
100014fc:	d0fb      	beq.n	100014f6 <runtime_init_bootrom_locking_enable+0x2>
100014fe:	f3bf 8f5f 	dmb	sy
10001502:	4770      	bx	lr
10001504:	400e0000 	.word	0x400e0000

10001508 <runtime_init_boot_locks_reset>:
10001508:	2100      	movs	r1, #0
1000150a:	4b04      	ldr	r3, [pc, #16]	@ (1000151c <runtime_init_boot_locks_reset+0x14>)
1000150c:	4a04      	ldr	r2, [pc, #16]	@ (10001520 <runtime_init_boot_locks_reset+0x18>)
1000150e:	f3bf 8f5f 	dmb	sy
10001512:	f843 1b04 	str.w	r1, [r3], #4
10001516:	4293      	cmp	r3, r2
10001518:	d1f9      	bne.n	1000150e <runtime_init_boot_locks_reset+0x6>
1000151a:	4770      	bx	lr
1000151c:	400e080c 	.word	0x400e080c
10001520:	400e082c 	.word	0x400e082c

10001524 <xosc_init>:
10001524:	b410      	push	{r4}
10001526:	f44f 708d 	mov.w	r0, #282	@ 0x11a
1000152a:	f44f 642a 	mov.w	r4, #2720	@ 0xaa0
1000152e:	4a06      	ldr	r2, [pc, #24]	@ (10001548 <xosc_init+0x24>)
10001530:	4b06      	ldr	r3, [pc, #24]	@ (1000154c <xosc_init+0x28>)
10001532:	4907      	ldr	r1, [pc, #28]	@ (10001550 <xosc_init+0x2c>)
10001534:	6014      	str	r4, [r2, #0]
10001536:	60d0      	str	r0, [r2, #12]
10001538:	6019      	str	r1, [r3, #0]
1000153a:	6853      	ldr	r3, [r2, #4]
1000153c:	2b00      	cmp	r3, #0
1000153e:	dafc      	bge.n	1000153a <xosc_init+0x16>
10001540:	f85d 4b04 	ldr.w	r4, [sp], #4
10001544:	4770      	bx	lr
10001546:	bf00      	nop
10001548:	40048000 	.word	0x40048000
1000154c:	4004a000 	.word	0x4004a000
10001550:	00fab000 	.word	0x00fab000

10001554 <first_per_core_initializer>:
10001554:	4770      	bx	lr
10001556:	bf00      	nop

10001558 <hard_assertion_failure>:
10001558:	b508      	push	{r3, lr}
1000155a:	4801      	ldr	r0, [pc, #4]	@ (10001560 <hard_assertion_failure+0x8>)
1000155c:	f7ff f882 	bl	10000664 <panic>
10001560:	10003e40 	.word	0x10003e40

10001564 <runtime_run_initializers>:
10001564:	b538      	push	{r3, r4, r5, lr}
10001566:	4c05      	ldr	r4, [pc, #20]	@ (1000157c <runtime_run_initializers+0x18>)
10001568:	4d05      	ldr	r5, [pc, #20]	@ (10001580 <runtime_run_initializers+0x1c>)
1000156a:	42ac      	cmp	r4, r5
1000156c:	d204      	bcs.n	10001578 <runtime_run_initializers+0x14>
1000156e:	f854 3b04 	ldr.w	r3, [r4], #4
10001572:	4798      	blx	r3
10001574:	42ac      	cmp	r4, r5
10001576:	d3fa      	bcc.n	1000156e <runtime_run_initializers+0xa>
10001578:	bd38      	pop	{r3, r4, r5, pc}
1000157a:	bf00      	nop
1000157c:	10003d78 	.word	0x10003d78
10001580:	10003db8 	.word	0x10003db8

10001584 <runtime_init_early_resets>:
10001584:	b410      	push	{r4}
10001586:	4807      	ldr	r0, [pc, #28]	@ (100015a4 <runtime_init_early_resets+0x20>)
10001588:	4c07      	ldr	r4, [pc, #28]	@ (100015a8 <runtime_init_early_resets+0x24>)
1000158a:	4b08      	ldr	r3, [pc, #32]	@ (100015ac <runtime_init_early_resets+0x28>)
1000158c:	4a08      	ldr	r2, [pc, #32]	@ (100015b0 <runtime_init_early_resets+0x2c>)
1000158e:	4909      	ldr	r1, [pc, #36]	@ (100015b4 <runtime_init_early_resets+0x30>)
10001590:	6004      	str	r4, [r0, #0]
10001592:	601a      	str	r2, [r3, #0]
10001594:	688b      	ldr	r3, [r1, #8]
10001596:	ea32 0303 	bics.w	r3, r2, r3
1000159a:	d1fb      	bne.n	10001594 <runtime_init_early_resets+0x10>
1000159c:	f85d 4b04 	ldr.w	r4, [sp], #4
100015a0:	4770      	bx	lr
100015a2:	bf00      	nop
100015a4:	40022000 	.word	0x40022000
100015a8:	efef3b7f 	.word	0xefef3b7f
100015ac:	40023000 	.word	0x40023000
100015b0:	03f3fff6 	.word	0x03f3fff6
100015b4:	40020000 	.word	0x40020000

100015b8 <runtime_init_usb_power_down>:
100015b8:	4b04      	ldr	r3, [pc, #16]	@ (100015cc <runtime_init_usb_power_down+0x14>)
100015ba:	6cdb      	ldr	r3, [r3, #76]	@ 0x4c
100015bc:	f5b3 4f00 	cmp.w	r3, #32768	@ 0x8000
100015c0:	d103      	bne.n	100015ca <runtime_init_usb_power_down+0x12>
100015c2:	f44f 2280 	mov.w	r2, #262144	@ 0x40000
100015c6:	4b02      	ldr	r3, [pc, #8]	@ (100015d0 <runtime_init_usb_power_down+0x18>)
100015c8:	64da      	str	r2, [r3, #76]	@ 0x4c
100015ca:	4770      	bx	lr
100015cc:	50110000 	.word	0x50110000
100015d0:	50112000 	.word	0x50112000

100015d4 <runtime_init_per_core_enable_coprocessors>:
100015d4:	f04f 22e0 	mov.w	r2, #3758153728	@ 0xe000e000
100015d8:	4b04      	ldr	r3, [pc, #16]	@ (100015ec <runtime_init_per_core_enable_coprocessors+0x18>)
100015da:	f8d2 1d88 	ldr.w	r1, [r2, #3464]	@ 0xd88
100015de:	430b      	orrs	r3, r1
100015e0:	f8c2 3d88 	str.w	r3, [r2, #3464]	@ 0xd88
100015e4:	ee10 0430 			dcp_rcmp r0
100015e8:	4770      	bx	lr
100015ea:	bf00      	nop
100015ec:	00300303 	.word	0x00300303

100015f0 <runtime_init_post_clock_resets>:
100015f0:	f06f 4160 	mvn.w	r1, #3758096384	@ 0xe0000000
100015f4:	4b04      	ldr	r3, [pc, #16]	@ (10001608 <runtime_init_post_clock_resets+0x18>)
100015f6:	4a05      	ldr	r2, [pc, #20]	@ (1000160c <runtime_init_post_clock_resets+0x1c>)
100015f8:	6019      	str	r1, [r3, #0]
100015fa:	6893      	ldr	r3, [r2, #8]
100015fc:	43db      	mvns	r3, r3
100015fe:	f033 4360 	bics.w	r3, r3, #3758096384	@ 0xe0000000
10001602:	d1fa      	bne.n	100015fa <runtime_init_post_clock_resets+0xa>
10001604:	4770      	bx	lr
10001606:	bf00      	nop
10001608:	40023000 	.word	0x40023000
1000160c:	40020000 	.word	0x40020000

10001610 <runtime_init_bootrom_reset>:
10001610:	b510      	push	{r4, lr}
10001612:	f245 2053 	movw	r0, #21075	@ 0x5253
10001616:	f7ff ff61 	bl	100014dc <rom_func_lookup>
1000161a:	e8bd 4010 	ldmia.w	sp!, {r4, lr}
1000161e:	4603      	mov	r3, r0
10001620:	2004      	movs	r0, #4
10001622:	4718      	bx	r3

10001624 <runtime_init_per_core_bootrom_reset>:
10001624:	b510      	push	{r4, lr}
10001626:	f245 2053 	movw	r0, #21075	@ 0x5253
1000162a:	f7ff ff57 	bl	100014dc <rom_func_lookup>
1000162e:	e8bd 4010 	ldmia.w	sp!, {r4, lr}
10001632:	4603      	mov	r3, r0
10001634:	2001      	movs	r0, #1
10001636:	4718      	bx	r3

10001638 <runtime_init_spin_locks_reset>:
10001638:	f7ff b8bc 	b.w	100007b4 <spin_locks_reset>

1000163c <runtime_init_install_ram_vector_table>:
1000163c:	4914      	ldr	r1, [pc, #80]	@ (10001690 <runtime_init_install_ram_vector_table+0x54>)
1000163e:	4b15      	ldr	r3, [pc, #84]	@ (10001694 <runtime_init_install_ram_vector_table+0x58>)
10001640:	b570      	push	{r4, r5, r6, lr}
10001642:	1a5c      	subs	r4, r3, r1
10001644:	10a6      	asrs	r6, r4, #2
10001646:	2e44      	cmp	r6, #68	@ 0x44
10001648:	4632      	mov	r2, r6
1000164a:	bf28      	it	cs
1000164c:	2244      	movcs	r2, #68	@ 0x44
1000164e:	4d12      	ldr	r5, [pc, #72]	@ (10001698 <runtime_init_install_ram_vector_table+0x5c>)
10001650:	0092      	lsls	r2, r2, #2
10001652:	4628      	mov	r0, r5
10001654:	f002 fac6 	bl	10003be4 <memcpy>
10001658:	f5b4 7f86 	cmp.w	r4, #268	@ 0x10c
1000165c:	d813      	bhi.n	10001686 <runtime_init_install_ram_vector_table+0x4a>
1000165e:	4a0f      	ldr	r2, [pc, #60]	@ (1000169c <runtime_init_install_ram_vector_table+0x60>)
10001660:	f1c6 0044 	rsb	r0, r6, #68	@ 0x44
10001664:	d012      	beq.n	1000168c <runtime_init_install_ram_vector_table+0x50>
10001666:	192b      	adds	r3, r5, r4
10001668:	0841      	lsrs	r1, r0, #1
1000166a:	eb03 01c1 	add.w	r1, r3, r1, lsl #3
1000166e:	e9c3 2200 	strd	r2, r2, [r3]
10001672:	3308      	adds	r3, #8
10001674:	428b      	cmp	r3, r1
10001676:	d1fa      	bne.n	1000166e <runtime_init_install_ram_vector_table+0x32>
10001678:	07c3      	lsls	r3, r0, #31
1000167a:	d504      	bpl.n	10001686 <runtime_init_install_ram_vector_table+0x4a>
1000167c:	f020 0001 	bic.w	r0, r0, #1
10001680:	4430      	add	r0, r6
10001682:	f845 2020 	str.w	r2, [r5, r0, lsl #2]
10001686:	4b06      	ldr	r3, [pc, #24]	@ (100016a0 <runtime_init_install_ram_vector_table+0x64>)
10001688:	609d      	str	r5, [r3, #8]
1000168a:	bd70      	pop	{r4, r5, r6, pc}
1000168c:	2043      	movs	r0, #67	@ 0x43
1000168e:	e7f8      	b.n	10001682 <runtime_init_install_ram_vector_table+0x46>
10001690:	10000000 	.word	0x10000000
10001694:	10000110 	.word	0x10000110
10001698:	20000000 	.word	0x20000000
1000169c:	10000111 	.word	0x10000111
100016a0:	e000ed00 	.word	0xe000ed00

100016a4 <runtime_init_clocks>:
100016a4:	2300      	movs	r3, #0
100016a6:	b570      	push	{r4, r5, r6, lr}
100016a8:	4c2b      	ldr	r4, [pc, #172]	@ (10001758 <runtime_init_clocks+0xb4>)
100016aa:	b082      	sub	sp, #8
100016ac:	f8c4 3084 	str.w	r3, [r4, #132]	@ 0x84
100016b0:	f7ff ff38 	bl	10001524 <xosc_init>
100016b4:	2201      	movs	r2, #1
100016b6:	4b29      	ldr	r3, [pc, #164]	@ (1000175c <runtime_init_clocks+0xb8>)
100016b8:	63da      	str	r2, [r3, #60]	@ 0x3c
100016ba:	6c63      	ldr	r3, [r4, #68]	@ 0x44
100016bc:	2b01      	cmp	r3, #1
100016be:	d1fc      	bne.n	100016ba <runtime_init_clocks+0x16>
100016c0:	2103      	movs	r1, #3
100016c2:	4a26      	ldr	r2, [pc, #152]	@ (1000175c <runtime_init_clocks+0xb8>)
100016c4:	4b24      	ldr	r3, [pc, #144]	@ (10001758 <runtime_init_clocks+0xb4>)
100016c6:	6311      	str	r1, [r2, #48]	@ 0x30
100016c8:	6b9c      	ldr	r4, [r3, #56]	@ 0x38
100016ca:	2c01      	cmp	r4, #1
100016cc:	d1fc      	bne.n	100016c8 <runtime_init_clocks+0x24>
100016ce:	2602      	movs	r6, #2
100016d0:	2505      	movs	r5, #5
100016d2:	4621      	mov	r1, r4
100016d4:	2305      	movs	r3, #5
100016d6:	4a22      	ldr	r2, [pc, #136]	@ (10001760 <runtime_init_clocks+0xbc>)
100016d8:	4822      	ldr	r0, [pc, #136]	@ (10001764 <runtime_init_clocks+0xc0>)
100016da:	9600      	str	r6, [sp, #0]
100016dc:	f7ff feac 	bl	10001438 <pll_init>
100016e0:	4621      	mov	r1, r4
100016e2:	462b      	mov	r3, r5
100016e4:	4a20      	ldr	r2, [pc, #128]	@ (10001768 <runtime_init_clocks+0xc4>)
100016e6:	4821      	ldr	r0, [pc, #132]	@ (1000176c <runtime_init_clocks+0xc8>)
100016e8:	9500      	str	r5, [sp, #0]
100016ea:	f7ff fea5 	bl	10001438 <pll_init>
100016ee:	2200      	movs	r2, #0
100016f0:	2004      	movs	r0, #4
100016f2:	4631      	mov	r1, r6
100016f4:	4b1e      	ldr	r3, [pc, #120]	@ (10001770 <runtime_init_clocks+0xcc>)
100016f6:	f7ff fe31 	bl	1000135c <clock_configure_undivided>
100016fa:	4621      	mov	r1, r4
100016fc:	4628      	mov	r0, r5
100016fe:	2200      	movs	r2, #0
10001700:	4b1c      	ldr	r3, [pc, #112]	@ (10001774 <runtime_init_clocks+0xd0>)
10001702:	f7ff fe2b 	bl	1000135c <clock_configure_undivided>
10001706:	2200      	movs	r2, #0
10001708:	2008      	movs	r0, #8
1000170a:	4611      	mov	r1, r2
1000170c:	4b1a      	ldr	r3, [pc, #104]	@ (10001778 <runtime_init_clocks+0xd4>)
1000170e:	f7ff fe25 	bl	1000135c <clock_configure_undivided>
10001712:	2200      	movs	r2, #0
10001714:	2009      	movs	r0, #9
10001716:	4611      	mov	r1, r2
10001718:	4b17      	ldr	r3, [pc, #92]	@ (10001778 <runtime_init_clocks+0xd4>)
1000171a:	f7ff fe1f 	bl	1000135c <clock_configure_undivided>
1000171e:	2200      	movs	r2, #0
10001720:	2006      	movs	r0, #6
10001722:	4611      	mov	r1, r2
10001724:	4b13      	ldr	r3, [pc, #76]	@ (10001774 <runtime_init_clocks+0xd0>)
10001726:	f7ff fe19 	bl	1000135c <clock_configure_undivided>
1000172a:	2200      	movs	r2, #0
1000172c:	4b11      	ldr	r3, [pc, #68]	@ (10001774 <runtime_init_clocks+0xd0>)
1000172e:	2007      	movs	r0, #7
10001730:	4611      	mov	r1, r2
10001732:	f7ff fe13 	bl	1000135c <clock_configure_undivided>
10001736:	2004      	movs	r0, #4
10001738:	f7ff fe78 	bl	1000142c <clock_get_hz>
1000173c:	2400      	movs	r4, #0
1000173e:	4b0f      	ldr	r3, [pc, #60]	@ (1000177c <runtime_init_clocks+0xd8>)
10001740:	fba3 3500 	umull	r3, r5, r3, r0
10001744:	0cad      	lsrs	r5, r5, #18
10001746:	b2e0      	uxtb	r0, r4
10001748:	4629      	mov	r1, r5
1000174a:	3401      	adds	r4, #1
1000174c:	f7ff feba 	bl	100014c4 <tick_start>
10001750:	2c06      	cmp	r4, #6
10001752:	d1f8      	bne.n	10001746 <runtime_init_clocks+0xa2>
10001754:	b002      	add	sp, #8
10001756:	bd70      	pop	{r4, r5, r6, pc}
10001758:	40010000 	.word	0x40010000
1000175c:	40013000 	.word	0x40013000
10001760:	59682f00 	.word	0x59682f00
10001764:	40050000 	.word	0x40050000
10001768:	47868c00 	.word	0x47868c00
1000176c:	40058000 	.word	0x40058000
10001770:	00b71b00 	.word	0x00b71b00
10001774:	08f0d180 	.word	0x08f0d180
10001778:	02dc6c00 	.word	0x02dc6c00
1000177c:	431bde83 	.word	0x431bde83

10001780 <generic_save_state>:
10001780:	b086      	sub	sp, #24
10001782:	b403      	push	{r0, r1}
10001784:	fc51 0408 	dcp_pxmd r0, r1
10001788:	e9cd 0102 	strd	r0, r1, [sp, #8]
1000178c:	fc51 0409 	dcp_pymd r0, r1
10001790:	e9cd 0104 	strd	r0, r1, [sp, #16]
10001794:	ec51 040a 	dcp_refd r0, r1
10001798:	e9cd 0106 	strd	r0, r1, [sp, #24]
1000179c:	bc03      	pop	{r0, r1}
1000179e:	47f0      	blx	lr

100017a0 <generic_restore_state>:
100017a0:	e8bd 5000 	ldmia.w	sp!, {ip, lr}
100017a4:	ec4e c400 	dcp_wxmd ip, lr
100017a8:	e8bd 5000 	ldmia.w	sp!, {ip, lr}
100017ac:	ec4e c401 	dcp_wymd ip, lr
100017b0:	e8bd 5000 	ldmia.w	sp!, {ip, lr}
100017b4:	ec4e c402 	dcp_wefd ip, lr
100017b8:	bd00      	pop	{pc}
100017ba:	0000      	movs	r0, r0
100017bc:	b500      	push	{lr}
100017be:	f7ff ffdf 	bl	10001780 <generic_save_state>
100017c2:	e002      	b.n	100017ca <__wrap___aeabi_dmul+0x6>

100017c4 <__wrap___aeabi_dmul>:
100017c4:	fe10 f430 	dcp_pcmp APSR_nzcv
100017c8:	d4f8      	bmi.n	100017bc <generic_restore_state+0x1c>
100017ca:	b510      	push	{r4, lr}
100017cc:	ec41 0410 	dcp_wxup r0, r1
100017d0:	ec43 2411 	dcp_wyup r2, r3
100017d4:	ec51 0404 	dcp_rxms r0, r1, #0x0
100017d8:	ec53 2405 	dcp_ryms r2, r3, #0x0
100017dc:	fba0 4c02 	umull	r4, ip, r0, r2
100017e0:	f05f 0e00 	movs.w	lr, #0
100017e4:	fbe0 ce03 	umlal	ip, lr, r0, r3
100017e8:	fbe1 ce02 	umlal	ip, lr, r1, r2
100017ec:	ec4c 4420 	dcp_wxms r4, ip
100017f0:	2400      	movs	r4, #0
100017f2:	fbe1 e403 	umlal	lr, r4, r1, r3
100017f6:	ec44 e430 	dcp_wxmo lr, r4
100017fa:	ee80 0420 			dcp_nrdd
100017fe:	ec51 0450 	dcp_rddm r0, r1
10001802:	e8bd 4010 	ldmia.w	sp!, {r4, lr}
10001806:	4770      	bx	lr
10001808:	b500      	push	{lr}
1000180a:	f7ff ffb9 	bl	10001780 <generic_save_state>
1000180e:	e002      	b.n	10001816 <double2int_z_entry>

10001810 <__wrap___aeabi_d2iz>:
10001810:	fe10 f430 	dcp_pcmp APSR_nzcv
10001814:	d4f8      	bmi.n	10001808 <__wrap___aeabi_dmul+0x44>

10001816 <double2int_z_entry>:
10001816:	ec41 0480 	dcp_wxdc r0, r1
1000181a:	ee00 0401 			dcp_add0
1000181e:	ee10 0401 			dcp_add1
10001822:	ee80 0440 			dcp_ntdc
10001826:	ee10 0413 			dcp_rdic r0
1000182a:	4770      	bx	lr
1000182c:	00000000 	.word	0x00000000

10001830 <rtwopi>:
	...
10001838:	28be60db 	.word	0x28be60db
1000183c:	9391054a 	.word	0x9391054a
10001840:	7f09d5f4 	.word	0x7f09d5f4
10001844:	7d4d3770 	.word	0x7d4d3770
10001848:	36d8a566 	.word	0x36d8a566
1000184c:	4f10e410 	.word	0x4f10e410
10001850:	7f9458ea 	.word	0x7f9458ea
10001854:	f7aef158 	.word	0xf7aef158
10001858:	6dc91b8e 	.word	0x6dc91b8e
1000185c:	909374b8 	.word	0x909374b8
10001860:	01924bba 	.word	0x01924bba
10001864:	82746487 	.word	0x82746487
10001868:	3f877ac7 	.word	0x3f877ac7
1000186c:	2c4a69cf 	.word	0x2c4a69cf
10001870:	ba208d7d 	.word	0xba208d7d
10001874:	4baed121 	.word	0x4baed121
10001878:	3a671c09 	.word	0x3a671c09
1000187c:	ad17df90 	.word	0xad17df90
10001880:	4e64758e 	.word	0x4e64758e
10001884:	60d4ce7d 	.word	0x60d4ce7d
10001888:	272117e2 	.word	0x272117e2
1000188c:	ef7e4a0e 	.word	0xef7e4a0e
10001890:	c7fe25ff 	.word	0xc7fe25ff
10001894:	f7816603 	.word	0xf7816603
10001898:	fbcbc462 	.word	0xfbcbc462
1000189c:	d6829b47 	.word	0xd6829b47
100018a0:	db4d9fb3 	.word	0xdb4d9fb3
100018a4:	c9f2c26d 	.word	0xc9f2c26d
100018a8:	d3d18fd9 	.word	0xd3d18fd9
100018ac:	a797fa8b 	.word	0xa797fa8b
100018b0:	5d49eeb1 	.word	0x5d49eeb1
100018b4:	faf97c5e 	.word	0xfaf97c5e
100018b8:	cf41ce7d 	.word	0xcf41ce7d
100018bc:	e294a4ba 	.word	0xe294a4ba
100018c0:	9afed7ec 	.word	0x9afed7ec
100018c4:	47e35742 	.word	0x47e35742
100018c8:	1580cc11 	.word	0x1580cc11

100018cc <drr_core>:
100018cc:	4b17      	ldr	r3, [pc, #92]	@ (1000192c <drr_core+0x60>)
100018ce:	f002 051f 	and.w	r5, r2, #31
100018d2:	f04f 0701 	mov.w	r7, #1
100018d6:	40af      	lsls	r7, r5
100018d8:	ea5f 1862 	movs.w	r8, r2, asr #5
100018dc:	fba7 4500 	umull	r4, r5, r7, r0
100018e0:	2600      	movs	r6, #0
100018e2:	fbe7 5601 	umlal	r5, r6, r7, r1
100018e6:	eb03 0388 	add.w	r3, r3, r8, lsl #2
100018ea:	f8d3 9010 	ldr.w	r9, [r3, #16]
100018ee:	fba9 a706 	umull	sl, r7, r9, r6
100018f2:	f8d3 900c 	ldr.w	r9, [r3, #12]
100018f6:	fba9 a805 	umull	sl, r8, r9, r5
100018fa:	fbe9 7866 	umaal	r7, r8, r9, r6
100018fe:	f8d3 9008 	ldr.w	r9, [r3, #8]
10001902:	fb09 8806 	mla	r8, r9, r6, r8
10001906:	fbe9 7805 	umlal	r7, r8, r9, r5
1000190a:	fba9 a604 	umull	sl, r6, r9, r4
1000190e:	f8d3 9004 	ldr.w	r9, [r3, #4]
10001912:	fb09 8805 	mla	r8, r9, r5, r8
10001916:	fbe9 7804 	umlal	r7, r8, r9, r4
1000191a:	f8d3 9000 	ldr.w	r9, [r3]
1000191e:	fb09 8804 	mla	r8, r9, r4, r8
10001922:	19bf      	adds	r7, r7, r6
10001924:	f148 0800 	adc.w	r8, r8, #0
10001928:	4770      	bx	lr
1000192a:	0000      	.short	0x0000
1000192c:	10001830 	.word	0x10001830
10001930:	ea50 3201 	orrs.w	r2, r0, r1, lsl #12
10001934:	bf08      	it	eq
10001936:	f041 4100 	orreq.w	r1, r1, #2147483648	@ 0x80000000
1000193a:	f441 2100 	orr.w	r1, r1, #524288	@ 0x80000
1000193e:	000b      	movs	r3, r1
10001940:	0002      	movs	r2, r0
10001942:	4770      	bx	lr
10001944:	b90b      	cbnz	r3, 1000194a <drr_core+0x7e>
10001946:	2000      	movs	r0, #0
10001948:	2100      	movs	r1, #0
1000194a:	2200      	movs	r2, #0
1000194c:	f240 0300 	movw	r3, #0
10001950:	f6c3 73f0 	movt	r3, #16368	@ 0x3ff0
10001954:	f01c 0f02 	tst.w	ip, #2
10001958:	bf1c      	itt	ne
1000195a:	4610      	movne	r0, r2
1000195c:	4619      	movne	r1, r3
1000195e:	4770      	bx	lr
10001960:	2200      	movs	r2, #0
10001962:	2300      	movs	r3, #0
10001964:	2400      	movs	r4, #0
10001966:	f05f 4500 	movs.w	r5, #2147483648	@ 0x80000000
1000196a:	e104      	b.n	10001b76 <__wrap_cos+0x8c>
1000196c:	f84d cd04 	str.w	ip, [sp, #-4]!
10001970:	f05f 0c00 	movs.w	ip, #0
10001974:	f10c 0c04 	add.w	ip, ip, #4
10001978:	f102 0204 	add.w	r2, r2, #4
1000197c:	f7ff ffa6 	bl	100018cc <drr_core>
10001980:	ea98 79e8 	eors.w	r9, r8, r8, asr #31
10001984:	f1b9 7f80 	cmp.w	r9, #16777216	@ 0x1000000
10001988:	d202      	bcs.n	10001990 <drr_core+0xc4>
1000198a:	f1bc 0f40 	cmp.w	ip, #64	@ 0x40
1000198e:	d1f1      	bne.n	10001974 <drr_core+0xa8>
10001990:	ea97 77e8 	eors.w	r7, r7, r8, asr #31
10001994:	f241 16a6 	movw	r6, #4518	@ 0x11a6
10001998:	f6c0 3646 	movt	r6, #2886	@ 0xb46
1000199c:	fba9 a006 	umull	sl, r0, r9, r6
100019a0:	f24d 5611 	movw	r6, #54545	@ 0xd511
100019a4:	f6c4 067e 	movt	r6, #18558	@ 0x487e
100019a8:	fba7 a106 	umull	sl, r1, r7, r6
100019ac:	fbe9 0166 	umaal	r0, r1, r9, r6
100019b0:	2606      	movs	r6, #6
100019b2:	fbe7 0106 	umlal	r0, r1, r7, r6
100019b6:	fb09 1106 	mla	r1, r9, r6, r1
100019ba:	f1dc 0a20 	rsbs	sl, ip, #32
100019be:	d457      	bmi.n	10001a70 <drr_core+0x1a4>
100019c0:	fa21 f30c 	lsr.w	r3, r1, ip
100019c4:	fa20 f20c 	lsr.w	r2, r0, ip
100019c8:	fa01 f90a 	lsl.w	r9, r1, sl
100019cc:	ea42 0209 	orr.w	r2, r2, r9
100019d0:	fba2 9403 	umull	r9, r4, r2, r3
100019d4:	fba2 9503 	umull	r9, r5, r2, r3
100019d8:	fbe3 4563 	umaal	r4, r5, r3, r3
100019dc:	fba4 9605 	umull	r9, r6, r4, r5
100019e0:	fba4 9705 	umull	r9, r7, r4, r5
100019e4:	fbe5 6765 	umaal	r6, r7, r5, r5
100019e8:	08f6      	lsrs	r6, r6, #3
100019ea:	ea56 7647 	orrs.w	r6, r6, r7, lsl #29
100019ee:	f04f 39aa 	mov.w	r9, #2863311530	@ 0xaaaaaaaa
100019f2:	fba6 6709 	umull	r6, r7, r6, r9
100019f6:	ebd4 0607 	rsbs	r6, r4, r7
100019fa:	eb75 0745 	sbcs.w	r7, r5, r5, lsl #1
100019fe:	ea5f 3927 	movs.w	r9, r7, asr #12
10001a02:	0b36      	lsrs	r6, r6, #12
10001a04:	eb56 5607 	adcs.w	r6, r6, r7, lsl #20
10001a08:	f159 677f 	adcs.w	r7, r9, #267386880	@ 0xff00000
10001a0c:	f117 5740 	adds.w	r7, r7, #805306368	@ 0x30000000
10001a10:	b4c0      	push	{r6, r7}
10001a12:	fba0 9205 	umull	r9, r2, r0, r5
10001a16:	fba1 9304 	umull	r9, r3, r1, r4
10001a1a:	fbe1 2365 	umaal	r2, r3, r1, r5
10001a1e:	fba2 9605 	umull	r9, r6, r2, r5
10001a22:	fba3 9704 	umull	r9, r7, r3, r4
10001a26:	fbe3 6765 	umaal	r6, r7, r3, r5
10001a2a:	f04f 39aa 	mov.w	r9, #2863311530	@ 0xaaaaaaaa
10001a2e:	fba2 a409 	umull	sl, r4, r2, r9
10001a32:	2500      	movs	r5, #0
10001a34:	fbe3 4509 	umlal	r4, r5, r3, r9
10001a38:	1964      	adds	r4, r4, r5
10001a3a:	f155 0500 	adcs.w	r5, r5, #0
10001a3e:	f04f 3988 	mov.w	r9, #2290649224	@ 0x88888888
10001a42:	fba6 2309 	umull	r2, r3, r6, r9
10001a46:	ebb4 1413 	subs.w	r4, r4, r3, lsr #4
10001a4a:	f165 0500 	sbc.w	r5, r5, #0
10001a4e:	ebb0 0094 	subs.w	r0, r0, r4, lsr #2
10001a52:	eb61 01a5 	sbc.w	r1, r1, r5, asr #2
10001a56:	ebb0 7085 	subs.w	r0, r0, r5, lsl #30
10001a5a:	f161 0100 	sbc.w	r1, r1, #0
10001a5e:	f5cc 6480 	rsb	r4, ip, #1024	@ 0x400
10001a62:	f1a4 040e 	sub.w	r4, r4, #14
10001a66:	f000 f982 	bl	10001d6e <dpack_q>
10001a6a:	e8bd 10c0 	ldmia.w	sp!, {r6, r7, ip}
10001a6e:	e00c      	b.n	10001a8a <drr_core+0x1be>
10001a70:	f5cc 6480 	rsb	r4, ip, #1024	@ 0x400
10001a74:	f1a4 040e 	sub.w	r4, r4, #14
10001a78:	f000 f979 	bl	10001d6e <dpack_q>
10001a7c:	f85d cb04 	ldr.w	ip, [sp], #4
10001a80:	2600      	movs	r6, #0
10001a82:	f240 0700 	movw	r7, #0
10001a86:	f6c3 77f0 	movt	r7, #16368	@ 0x3ff0
10001a8a:	ea5f 78d8 	movs.w	r8, r8, lsr #31
10001a8e:	f368 0c00 	bfi	ip, r8, #0, #1
10001a92:	ea5f 096c 	movs.w	r9, ip, asr #1
10001a96:	d40f      	bmi.n	10001ab8 <drr_core+0x1ec>
10001a98:	ea5f 0969 	movs.w	r9, r9, asr #1
10001a9c:	d306      	bcc.n	10001aac <drr_core+0x1e0>
10001a9e:	f01c 0c04 	ands.w	ip, ip, #4
10001aa2:	ea57 714c 	orrs.w	r1, r7, ip, lsl #29
10001aa6:	0030      	movs	r0, r6
10001aa8:	e8bd 87f0 	ldmia.w	sp!, {r4, r5, r6, r7, r8, r9, sl, pc}
10001aac:	ea9c 0c9c 	eors.w	ip, ip, ip, lsr #2
10001ab0:	ea51 71cc 	orrs.w	r1, r1, ip, lsl #31
10001ab4:	e8bd 87f0 	ldmia.w	sp!, {r4, r5, r6, r7, r8, r9, sl, pc}
10001ab8:	f01c 0404 	ands.w	r4, ip, #4
10001abc:	ea97 7744 	eors.w	r7, r7, r4, lsl #29
10001ac0:	b4c0      	push	{r6, r7}
10001ac2:	e0a6      	b.n	10001c12 <__wrap_cos+0x128>

10001ac4 <__wrap_sincos>:
10001ac4:	b53c      	push	{r2, r3, r4, r5, lr}
10001ac6:	f000 f804 	bl	10001ad2 <sincos_raw>
10001aca:	bc30      	pop	{r4, r5}
10001acc:	c403      	stmia	r4!, {r0, r1}
10001ace:	c50c      	stmia	r5!, {r2, r3}
10001ad0:	bd30      	pop	{r4, r5, pc}

10001ad2 <sincos_raw>:
10001ad2:	f011 4c00 	ands.w	ip, r1, #2147483648	@ 0x80000000
10001ad6:	ea5f 0c5c 	movs.w	ip, ip, lsr #1
10001ada:	f05c 4c00 	orrs.w	ip, ip, #2147483648	@ 0x80000000
10001ade:	e006      	b.n	10001aee <__wrap_cos+0x4>

10001ae0 <__wrap_sin>:
10001ae0:	ea5f 7c51 	movs.w	ip, r1, lsr #29
10001ae4:	f01c 0c04 	ands.w	ip, ip, #4
10001ae8:	e001      	b.n	10001aee <__wrap_cos+0x4>

10001aea <__wrap_cos>:
10001aea:	f05f 0c02 	movs.w	ip, #2
10001aee:	f3c1 530a 	ubfx	r3, r1, #20, #11
10001af2:	f2a3 32ff 	subw	r2, r3, #1023	@ 0x3ff
10001af6:	f5b2 6f80 	cmp.w	r2, #1024	@ 0x400
10001afa:	f43f af19 	beq.w	10001930 <drr_core+0x64>
10001afe:	f112 0f20 	cmn.w	r2, #32
10001b02:	f6ff af1f 	blt.w	10001944 <drr_core+0x78>
10001b06:	2301      	movs	r3, #1
10001b08:	f363 511f 	bfi	r1, r3, #20, #12
10001b0c:	e92d 47f0 	stmdb	sp!, {r4, r5, r6, r7, r8, r9, sl, lr}
10001b10:	f102 020c 	add.w	r2, r2, #12
10001b14:	f7ff feda 	bl	100018cc <drr_core>
10001b18:	ea5f 7498 	movs.w	r4, r8, lsr #30
10001b1c:	f144 0400 	adc.w	r4, r4, #0
10001b20:	eba8 7884 	sub.w	r8, r8, r4, lsl #30
10001b24:	eb0c 0c44 	add.w	ip, ip, r4, lsl #1
10001b28:	ea4c 7cd8 	orr.w	ip, ip, r8, lsr #31
10001b2c:	ea97 77e8 	eors.w	r7, r7, r8, asr #31
10001b30:	ea98 78e8 	eors.w	r8, r8, r8, asr #31
10001b34:	f5b8 0f80 	cmp.w	r8, #4194304	@ 0x400000
10001b38:	f4ff af18 	bcc.w	1000196c <drr_core+0xa0>
10001b3c:	f241 19a6 	movw	r9, #4518	@ 0x11a6
10001b40:	f6c0 3946 	movt	r9, #2886	@ 0xb46
10001b44:	fba8 a009 	umull	sl, r0, r8, r9
10001b48:	f24d 5911 	movw	r9, #54545	@ 0xd511
10001b4c:	f6c4 097e 	movt	r9, #18558	@ 0x487e
10001b50:	fba7 a109 	umull	sl, r1, r7, r9
10001b54:	fbe8 0169 	umaal	r0, r1, r8, r9
10001b58:	f05f 0906 	movs.w	r9, #6
10001b5c:	fbe7 0109 	umlal	r0, r1, r7, r9
10001b60:	fb08 1109 	mla	r1, r8, r9, r1
10001b64:	f1b1 7f00 	cmp.w	r1, #33554432	@ 0x2000000
10001b68:	f4ff aefa 	bcc.w	10001960 <drr_core+0x94>
10001b6c:	0eca      	lsrs	r2, r1, #27
10001b6e:	4b7c      	ldr	r3, [pc, #496]	@ (10001d60 <dsc_h1c+0x1c>)
10001b70:	eb03 1302 	add.w	r3, r3, r2, lsl #4
10001b74:	cb3c      	ldmia	r3, {r2, r3, r4, r5}
10001b76:	1a80      	subs	r0, r0, r2
10001b78:	4199      	sbcs	r1, r3
10001b7a:	d410      	bmi.n	10001b9e <__wrap_cos+0xb4>
10001b7c:	ea5f 066c 	movs.w	r6, ip, asr #1
10001b80:	d436      	bmi.n	10001bf0 <__wrap_cos+0x106>
10001b82:	1076      	asrs	r6, r6, #1
10001b84:	d21c      	bcs.n	10001bc0 <__wrap_cos+0xd6>
10001b86:	f000 f86c 	bl	10001c62 <dsc_h0>
10001b8a:	f000 f8af 	bl	10001cec <dsc_h0s>
10001b8e:	f000 f8ec 	bl	10001d6a <dpack_q63>
10001b92:	ea9c 0c9c 	eors.w	ip, ip, ip, lsr #2
10001b96:	ea51 71cc 	orrs.w	r1, r1, ip, lsl #31
10001b9a:	e8bd 87f0 	ldmia.w	sp!, {r4, r5, r6, r7, r8, r9, sl, pc}
10001b9e:	ea5f 066c 	movs.w	r6, ip, asr #1
10001ba2:	d449      	bmi.n	10001c38 <__wrap_cos+0x14e>
10001ba4:	1076      	asrs	r6, r6, #1
10001ba6:	d217      	bcs.n	10001bd8 <__wrap_cos+0xee>
10001ba8:	f000 f858 	bl	10001c5c <dsc_h1>
10001bac:	f000 f8ac 	bl	10001d08 <dsc_h1s>
10001bb0:	f000 f8d8 	bl	10001d64 <dnegpack_q63>
10001bb4:	ea9c 0c9c 	eors.w	ip, ip, ip, lsr #2
10001bb8:	ea51 71cc 	orrs.w	r1, r1, ip, lsl #31
10001bbc:	e8bd 87f0 	ldmia.w	sp!, {r4, r5, r6, r7, r8, r9, sl, pc}
10001bc0:	f000 f84f 	bl	10001c62 <dsc_h0>
10001bc4:	f000 f8af 	bl	10001d26 <dsc_h0c>
10001bc8:	f000 f8cc 	bl	10001d64 <dnegpack_q63>
10001bcc:	f01c 0c04 	ands.w	ip, ip, #4
10001bd0:	ea51 714c 	orrs.w	r1, r1, ip, lsl #29
10001bd4:	e8bd 87f0 	ldmia.w	sp!, {r4, r5, r6, r7, r8, r9, sl, pc}
10001bd8:	f000 f840 	bl	10001c5c <dsc_h1>
10001bdc:	f000 f8b2 	bl	10001d44 <dsc_h1c>
10001be0:	f000 f8c3 	bl	10001d6a <dpack_q63>
10001be4:	f01c 0c04 	ands.w	ip, ip, #4
10001be8:	ea51 714c 	orrs.w	r1, r1, ip, lsl #29
10001bec:	e8bd 87f0 	ldmia.w	sp!, {r4, r5, r6, r7, r8, r9, sl, pc}
10001bf0:	f000 f837 	bl	10001c62 <dsc_h0>
10001bf4:	b4fc      	push	{r2, r3, r4, r5, r6, r7}
10001bf6:	f000 f896 	bl	10001d26 <dsc_h0c>
10001bfa:	f000 f8b3 	bl	10001d64 <dnegpack_q63>
10001bfe:	f01c 0404 	ands.w	r4, ip, #4
10001c02:	ea91 7144 	eors.w	r1, r1, r4, lsl #29
10001c06:	bcfc      	pop	{r2, r3, r4, r5, r6, r7}
10001c08:	b403      	push	{r0, r1}
10001c0a:	f000 f86f 	bl	10001cec <dsc_h0s>
10001c0e:	f000 f8ac 	bl	10001d6a <dpack_q63>
10001c12:	ea9c 045c 	eors.w	r4, ip, ip, lsr #1
10001c16:	ea94 049c 	eors.w	r4, r4, ip, lsr #2
10001c1a:	ea91 71c4 	eors.w	r1, r1, r4, lsl #31
10001c1e:	f01c 0f02 	tst.w	ip, #2
10001c22:	bf1d      	ittte	ne
10001c24:	4602      	movne	r2, r0
10001c26:	460b      	movne	r3, r1
10001c28:	bc03      	popne	{r0, r1}
10001c2a:	bc0c      	popeq	{r2, r3}
10001c2c:	f01c 4480 	ands.w	r4, ip, #1073741824	@ 0x40000000
10001c30:	ea91 0144 	eors.w	r1, r1, r4, lsl #1
10001c34:	e8bd 87f0 	ldmia.w	sp!, {r4, r5, r6, r7, r8, r9, sl, pc}
10001c38:	f000 f810 	bl	10001c5c <dsc_h1>
10001c3c:	b4fc      	push	{r2, r3, r4, r5, r6, r7}
10001c3e:	f000 f881 	bl	10001d44 <dsc_h1c>
10001c42:	f000 f892 	bl	10001d6a <dpack_q63>
10001c46:	f01c 0404 	ands.w	r4, ip, #4
10001c4a:	ea91 7144 	eors.w	r1, r1, r4, lsl #29
10001c4e:	bcfc      	pop	{r2, r3, r4, r5, r6, r7}
10001c50:	b403      	push	{r0, r1}
10001c52:	f000 f859 	bl	10001d08 <dsc_h1s>
10001c56:	f000 f885 	bl	10001d64 <dnegpack_q63>
10001c5a:	e7da      	b.n	10001c12 <__wrap_cos+0x128>

10001c5c <dsc_h1>:
10001c5c:	4240      	negs	r0, r0
10001c5e:	eb61 0141 	sbc.w	r1, r1, r1, lsl #1

10001c62 <dsc_h0>:
10001c62:	fba1 6701 	umull	r6, r7, r1, r1
10001c66:	fba0 2301 	umull	r2, r3, r0, r1
10001c6a:	087f      	lsrs	r7, r7, #1
10001c6c:	ea4f 0636 	mov.w	r6, r6, rrx
10001c70:	18f2      	adds	r2, r6, r3
10001c72:	f147 0300 	adc.w	r3, r7, #0
10001c76:	fba3 7600 	umull	r7, r6, r3, r0
10001c7a:	fbe2 7601 	umlal	r7, r6, r2, r1
10001c7e:	2700      	movs	r7, #0
10001c80:	fbe3 6701 	umlal	r6, r7, r3, r1
10001c84:	f04f 3855 	mov.w	r8, #1431655765	@ 0x55555555
10001c88:	fba6 9608 	umull	r9, r6, r6, r8
10001c8c:	f04f 0900 	mov.w	r9, #0
10001c90:	fbe7 6908 	umlal	r6, r9, r7, r8
10001c94:	eb16 0609 	adds.w	r6, r6, r9
10001c98:	f159 0700 	adcs.w	r7, r9, #0
10001c9c:	1b86      	subs	r6, r0, r6
10001c9e:	eb71 0707 	sbcs.w	r7, r1, r7
10001ca2:	ea4f 3003 	mov.w	r0, r3, lsl #12
10001ca6:	ea40 5012 	orr.w	r0, r0, r2, lsr #20
10001caa:	fba0 0900 	umull	r0, r9, r0, r0
10001cae:	fbe9 0908 	umlal	r0, r9, r9, r8
10001cb2:	fba9 0801 	umull	r0, r8, r9, r1
10001cb6:	f04f 3033 	mov.w	r0, #858993459	@ 0x33333333
10001cba:	fba8 0800 	umull	r0, r8, r8, r0
10001cbe:	fb58 fa11 	smmulr	sl, r8, r1
10001cc2:	f64a 20aa 	movw	r0, #43690	@ 0xaaaa
10001cc6:	f6c2 20aa 	movt	r0, #10922	@ 0x2aaa
10001cca:	fb60 991a 	smmlsr	r9, r0, sl, r9
10001cce:	ebb2 1249 	subs.w	r2, r2, r9, lsl #5
10001cd2:	eb73 63d9 	sbcs.w	r3, r3, r9, lsr #27
10001cd6:	fb5a fa11 	smmulr	sl, sl, r1
10001cda:	f04f 60c3 	mov.w	r0, #102236160	@ 0x6180000
10001cde:	fb6a 8810 	smmlsr	r8, sl, r0, r8
10001ce2:	eb16 1648 	adds.w	r6, r6, r8, lsl #5
10001ce6:	eb57 67d8 	adcs.w	r7, r7, r8, lsr #27
10001cea:	4770      	bx	lr

10001cec <dsc_h0s>:
10001cec:	fba2 8004 	umull	r8, r0, r2, r4
10001cf0:	f04f 0100 	mov.w	r1, #0
10001cf4:	fbe3 0104 	umlal	r0, r1, r3, r4
10001cf8:	fba6 8305 	umull	r8, r3, r6, r5
10001cfc:	fbe7 3405 	umlal	r3, r4, r7, r5
10001d00:	1a18      	subs	r0, r3, r0
10001d02:	eb64 0101 	sbc.w	r1, r4, r1
10001d06:	4770      	bx	lr

10001d08 <dsc_h1s>:
10001d08:	fba2 8004 	umull	r8, r0, r2, r4
10001d0c:	f04f 0100 	mov.w	r1, #0
10001d10:	fbe3 0104 	umlal	r0, r1, r3, r4
10001d14:	fba6 8305 	umull	r8, r3, r6, r5
10001d18:	4264      	negs	r4, r4
10001d1a:	fbe7 3405 	umlal	r3, r4, r7, r5
10001d1e:	1818      	adds	r0, r3, r0
10001d20:	eb44 0101 	adc.w	r1, r4, r1
10001d24:	4770      	bx	lr

10001d26 <dsc_h0c>:
10001d26:	fba2 8005 	umull	r8, r0, r2, r5
10001d2a:	f04f 0100 	mov.w	r1, #0
10001d2e:	fbe3 0105 	umlal	r0, r1, r3, r5
10001d32:	fba6 8304 	umull	r8, r3, r6, r4
10001d36:	426d      	negs	r5, r5
10001d38:	fbe7 3504 	umlal	r3, r5, r7, r4
10001d3c:	1818      	adds	r0, r3, r0
10001d3e:	eb45 0101 	adc.w	r1, r5, r1
10001d42:	4770      	bx	lr

10001d44 <dsc_h1c>:
10001d44:	fba2 8005 	umull	r8, r0, r2, r5
10001d48:	f04f 0100 	mov.w	r1, #0
10001d4c:	fbe3 0105 	umlal	r0, r1, r3, r5
10001d50:	fba6 8304 	umull	r8, r3, r6, r4
10001d54:	fbe7 3504 	umlal	r3, r5, r7, r4
10001d58:	1a18      	subs	r0, r3, r0
10001d5a:	eb65 0101 	sbc.w	r1, r5, r1
10001d5e:	4770      	bx	lr
10001d60:	10001dbc 	.word	0x10001dbc

10001d64 <dnegpack_q63>:
10001d64:	4240      	negs	r0, r0
10001d66:	eb61 0141 	sbc.w	r1, r1, r1, lsl #1

10001d6a <dpack_q63>:
10001d6a:	f240 34f3 	movw	r4, #1011	@ 0x3f3

10001d6e <dpack_q>:
10001d6e:	fab1 f281 	clz	r2, r1
10001d72:	2a0c      	cmp	r2, #12
10001d74:	d20c      	bcs.n	10001d90 <dpack_q+0x22>
10001d76:	3215      	adds	r2, #21
10001d78:	fa11 f302 	lsls.w	r3, r1, r2
10001d7c:	f1c2 0220 	rsb	r2, r2, #32
10001d80:	40d0      	lsrs	r0, r2
10001d82:	fa21 f102 	lsr.w	r1, r1, r2
10001d86:	4422      	add	r2, r4
10001d88:	4158      	adcs	r0, r3
10001d8a:	eb41 5102 	adc.w	r1, r1, r2, lsl #20
10001d8e:	4770      	bx	lr
10001d90:	b169      	cbz	r1, 10001dae <dpack_q+0x40>
10001d92:	f1c2 022b 	rsb	r2, r2, #43	@ 0x2b
10001d96:	fa30 f302 	lsrs.w	r3, r0, r2
10001d9a:	f1c2 0220 	rsb	r2, r2, #32
10001d9e:	4091      	lsls	r1, r2
10001da0:	4090      	lsls	r0, r2
10001da2:	4319      	orrs	r1, r3
10001da4:	eba4 0202 	sub.w	r2, r4, r2
10001da8:	eb01 5102 	add.w	r1, r1, r2, lsl #20
10001dac:	4770      	bx	lr
10001dae:	0001      	movs	r1, r0
10001db0:	f04f 0000 	mov.w	r0, #0
10001db4:	f1a4 0420 	sub.w	r4, r4, #32
10001db8:	d1d9      	bne.n	10001d6e <dpack_q>
10001dba:	4770      	bx	lr

10001dbc <trigtab>:
10001dbc:	25735c0b 	.word	0x25735c0b
10001dc0:	03f574a9 	.word	0x03f574a9
10001dc4:	01fab529 	.word	0x01fab529
10001dc8:	7ffc1500 	.word	0x7ffc1500
10001dcc:	00aa2feb 	.word	0x00aa2feb
10001dd0:	0c44d954 	.word	0x0c44d954
10001dd4:	0621d2c8 	.word	0x0621d2c8
10001dd8:	7fda601f 	.word	0x7fda601f
10001ddc:	42e86336 	.word	0x42e86336
10001de0:	13d9d3cf 	.word	0x13d9d3cf
10001de4:	09ea5e3c 	.word	0x09ea5e3c
10001de8:	7f9d88f0 	.word	0x7f9d88f0
10001dec:	046dc42f 	.word	0x046dc42f
10001df0:	1c0a86d9 	.word	0x1c0a86d9
10001df4:	0dfe171f 	.word	0x0dfe171f
10001df8:	7f3b9ed0 	.word	0x7f3b9ed0
10001dfc:	ec509ba7 	.word	0xec509ba7
10001e00:	23ebf53e 	.word	0x23ebf53e
10001e04:	11e6e7bc 	.word	0x11e6e7bc
10001e08:	7ebdefc7 	.word	0x7ebdefc7
10001e0c:	039c1cd2 	.word	0x039c1cd2
10001e10:	2bf112b2 	.word	0x2bf112b2
10001e14:	15dcf546 	.word	0x15dcf546
10001e18:	7e1e7749 	.word	0x7e1e7749
10001e1c:	3d7a05ca 	.word	0x3d7a05ca
10001e20:	33f293f4 	.word	0x33f293f4
10001e24:	19cbc014 	.word	0x19cbc014
10001e28:	7d5fac9c 	.word	0x7d5fac9c
10001e2c:	7aefa0a0 	.word	0x7aefa0a0
10001e30:	3c19321d 	.word	0x3c19321d
10001e34:	1dc6221d 	.word	0x1dc6221d
10001e38:	7c7d2f2f 	.word	0x7c7d2f2f
10001e3c:	12fb0fb5 	.word	0x12fb0fb5
10001e40:	4450ef70 	.word	0x4450ef70
10001e44:	21c10c53 	.word	0x21c10c53
10001e48:	7b782235 	.word	0x7b782235
10001e4c:	476b8d5c 	.word	0x476b8d5c
10001e50:	4bf1a045 	.word	0x4bf1a045
10001e54:	256adc18 	.word	0x256adc18
10001e58:	7a68ad16 	.word	0x7a68ad16
10001e5c:	576940c1 	.word	0x576940c1
10001e60:	53ead96d 	.word	0x53ead96d
10001e64:	29361639 	.word	0x29361639
10001e68:	792f2d3c 	.word	0x792f2d3c
10001e6c:	d34eeadf 	.word	0xd34eeadf
10001e70:	5bb34289 	.word	0x5bb34289
10001e74:	2ce039d6 	.word	0x2ce039d6
10001e78:	77e02625 	.word	0x77e02625
10001e7c:	31ea5069 	.word	0x31ea5069
10001e80:	641107d9 	.word	0x641107d9
10001e84:	30c4d3c0 	.word	0x30c4d3c0
10001e88:	76586270 	.word	0x76586270
10001e8c:	f36756cb 	.word	0xf36756cb
10001e90:	6bfda2b3 	.word	0x6bfda2b3
10001e94:	34687e1c 	.word	0x34687e1c
10001e98:	74c77a22 	.word	0x74c77a22
10001e9c:	2f7aed0e 	.word	0x2f7aed0e
10001ea0:	73e07531 	.word	0x73e07531
10001ea4:	37fae7cc 	.word	0x37fae7cc
10001ea8:	731c1127 	.word	0x731c1127
10001eac:	fcc48ec0 	.word	0xfcc48ec0
10001eb0:	7c14790e 	.word	0x7c14790e
10001eb4:	3ba3a70e 	.word	0x3ba3a70e
10001eb8:	7141cd8e 	.word	0x7141cd8e
10001ebc:	3b04b713 	.word	0x3b04b713
10001ec0:	83547b8f 	.word	0x83547b8f
10001ec4:	3ed289d4 	.word	0x3ed289d4
10001ec8:	6f85d8eb 	.word	0x6f85d8eb
10001ecc:	135b369a 	.word	0x135b369a
10001ed0:	8c0b6fd9 	.word	0x8c0b6fd9
10001ed4:	4294ead4 	.word	0x4294ead4
10001ed8:	6d51efa3 	.word	0x6d51efa3
10001edc:	4aca525f 	.word	0x4aca525f
10001ee0:	9439d326 	.word	0x9439d326
10001ee4:	460a6e70 	.word	0x460a6e70
10001ee8:	6b230540 	.word	0x6b230540
10001eec:	41c44083 	.word	0x41c44083
10001ef0:	9c0e0b34 	.word	0x9c0e0b34
10001ef4:	4948b03d 	.word	0x4948b03d
10001ef8:	68f1ef07 	.word	0x68f1ef07
10001efc:	a36d08bf 	.word	0xa36d08bf
10001f00:	a47961fd 	.word	0xa47961fd
10001f04:	4cb1f285 	.word	0x4cb1f285
10001f08:	667a849d 	.word	0x667a849d
10001f0c:	c8f81636 	.word	0xc8f81636
10001f10:	abe547d2 	.word	0xabe547d2
10001f14:	4fa2221e 	.word	0x4fa2221e
10001f18:	6436622f 	.word	0x6436622f
10001f1c:	d0c8c9ad 	.word	0xd0c8c9ad
10001f20:	b3feade1 	.word	0xb3feade1
10001f24:	52c37024 	.word	0x52c37024
10001f28:	61a4af86 	.word	0x61a4af86
10001f2c:	64730e73 	.word	0x64730e73
10001f30:	bbfe356a 	.word	0xbbfe356a
10001f34:	55c5f028 	.word	0x55c5f028
10001f38:	5f02a3a3 	.word	0x5f02a3a3
10001f3c:	b08ca5c6 	.word	0xb08ca5c6
10001f40:	c412b955 	.word	0xc412b955
10001f44:	58ba9208 	.word	0x58ba9208
10001f48:	5c4194a3 	.word	0x5c4194a3
10001f4c:	54530090 	.word	0x54530090
10001f50:	cbb02d37 	.word	0xcbb02d37
10001f54:	5b6ef419 	.word	0x5b6ef419
10001f58:	59938ed8 	.word	0x59938ed8
10001f5c:	a18d7c36 	.word	0xa18d7c36
10001f60:	d3aa3c6e 	.word	0xd3aa3c6e
10001f64:	5e2e0225 	.word	0x5e2e0225
10001f68:	56af32fc 	.word	0x56af32fc
10001f6c:	48a2c7d0 	.word	0x48a2c7d0
10001f70:	dbff19f6 	.word	0xdbff19f6
10001f74:	60f35332 	.word	0x60f35332
10001f78:	5392ed7e 	.word	0x5392ed7e
10001f7c:	7aad9a94 	.word	0x7aad9a94
10001f80:	e422ade1 	.word	0xe422ade1
10001f84:	638edfca 	.word	0x638edfca
10001f88:	50732bc7 	.word	0x50732bc7
10001f8c:	19ef15ff 	.word	0x19ef15ff
10001f90:	ebfb85bd 	.word	0xebfb85bd
10001f94:	65fa18bb 	.word	0x65fa18bb
10001f98:	4d5c61c7 	.word	0x4d5c61c7
10001f9c:	7e0f96bd 	.word	0x7e0f96bd
10001fa0:	f44c4b49 	.word	0xf44c4b49
10001fa4:	686f81f7 	.word	0x686f81f7
10001fa8:	4a0217e6 	.word	0x4a0217e6
10001fac:	1def09eb 	.word	0x1def09eb
10001fb0:	fc4dbdfd 	.word	0xfc4dbdfd
10001fb4:	6ab2d2c4 	.word	0x6ab2d2c4
10001fb8:	46b4e413 	.word	0x46b4e413

10001fbc <_out_char>:
10001fbc:	b900      	cbnz	r0, 10001fc0 <_out_char+0x4>
10001fbe:	4770      	bx	lr
10001fc0:	f000 b902 	b.w	100021c8 <__wrap_putchar>

10001fc4 <weak_raw_vprintf>:
10001fc4:	b510      	push	{r4, lr}
10001fc6:	4b09      	ldr	r3, [pc, #36]	@ (10001fec <weak_raw_vprintf+0x28>)
10001fc8:	b084      	sub	sp, #16
10001fca:	681c      	ldr	r4, [r3, #0]
10001fcc:	b14c      	cbz	r4, 10001fe2 <weak_raw_vprintf+0x1e>
10001fce:	4603      	mov	r3, r0
10001fd0:	9100      	str	r1, [sp, #0]
10001fd2:	f04f 32ff 	mov.w	r2, #4294967295
10001fd6:	a903      	add	r1, sp, #12
10001fd8:	4805      	ldr	r0, [pc, #20]	@ (10001ff0 <weak_raw_vprintf+0x2c>)
10001fda:	47a0      	blx	r4
10001fdc:	2001      	movs	r0, #1
10001fde:	b004      	add	sp, #16
10001fe0:	bd10      	pop	{r4, pc}
10001fe2:	f000 f933 	bl	1000224c <__wrap_puts>
10001fe6:	4620      	mov	r0, r4
10001fe8:	b004      	add	sp, #16
10001fea:	bd10      	pop	{r4, pc}
10001fec:	200019a4 	.word	0x200019a4
10001ff0:	10001fbd 	.word	0x10001fbd

10001ff4 <_exit>:
10001ff4:	be00      	bkpt	0x0000
10001ff6:	e7fd      	b.n	10001ff4 <_exit>

10001ff8 <exit>:
10001ff8:	b508      	push	{r3, lr}
10001ffa:	f7ff fffb 	bl	10001ff4 <_exit>
10001ffe:	bf00      	nop

10002000 <runtime_init>:
10002000:	b538      	push	{r3, r4, r5, lr}
10002002:	4c06      	ldr	r4, [pc, #24]	@ (1000201c <runtime_init+0x1c>)
10002004:	4d06      	ldr	r5, [pc, #24]	@ (10002020 <runtime_init+0x20>)
10002006:	f7ff faad 	bl	10001564 <runtime_run_initializers>
1000200a:	42ac      	cmp	r4, r5
1000200c:	d204      	bcs.n	10002018 <runtime_init+0x18>
1000200e:	f854 3b04 	ldr.w	r3, [r4], #4
10002012:	4798      	blx	r3
10002014:	42ac      	cmp	r4, r5
10002016:	d3fa      	bcc.n	1000200e <runtime_init+0xe>
10002018:	bd38      	pop	{r3, r4, r5, pc}
1000201a:	bf00      	nop
1000201c:	10003db8 	.word	0x10003db8
10002020:	10003dc0 	.word	0x10003dc0

10002024 <stdio_out_chars_no_crlf>:
10002024:	6803      	ldr	r3, [r0, #0]
10002026:	4608      	mov	r0, r1
10002028:	4611      	mov	r1, r2
1000202a:	4718      	bx	r3

1000202c <stdio_out_chars_crlf>:
1000202c:	e92d 41f0 	stmdb	sp!, {r4, r5, r6, r7, r8, lr}
10002030:	4615      	mov	r5, r2
10002032:	7d42      	ldrb	r2, [r0, #21]
10002034:	4607      	mov	r7, r0
10002036:	4688      	mov	r8, r1
10002038:	2a00      	cmp	r2, #0
1000203a:	d046      	beq.n	100020ca <stdio_out_chars_crlf+0x9e>
1000203c:	2d00      	cmp	r5, #0
1000203e:	dd1d      	ble.n	1000207c <stdio_out_chars_crlf+0x50>
10002040:	780b      	ldrb	r3, [r1, #0]
10002042:	2b0a      	cmp	r3, #10
10002044:	d023      	beq.n	1000208e <stdio_out_chars_crlf+0x62>
10002046:	2d01      	cmp	r5, #1
10002048:	f04f 0c00 	mov.w	ip, #0
1000204c:	d018      	beq.n	10002080 <stdio_out_chars_crlf+0x54>
1000204e:	4646      	mov	r6, r8
10002050:	2401      	movs	r4, #1
10002052:	f816 2f01 	ldrb.w	r2, [r6, #1]!
10002056:	4621      	mov	r1, r4
10002058:	2a0a      	cmp	r2, #10
1000205a:	f104 0401 	add.w	r4, r4, #1
1000205e:	d022      	beq.n	100020a6 <stdio_out_chars_crlf+0x7a>
10002060:	42a5      	cmp	r5, r4
10002062:	d1f6      	bne.n	10002052 <stdio_out_chars_crlf+0x26>
10002064:	4565      	cmp	r5, ip
10002066:	dc0b      	bgt.n	10002080 <stdio_out_chars_crlf+0x54>
10002068:	eb08 0305 	add.w	r3, r8, r5
1000206c:	f813 3c01 	ldrb.w	r3, [r3, #-1]
10002070:	f1a3 030d 	sub.w	r3, r3, #13
10002074:	fab3 f383 	clz	r3, r3
10002078:	095b      	lsrs	r3, r3, #5
1000207a:	753b      	strb	r3, [r7, #20]
1000207c:	e8bd 81f0 	ldmia.w	sp!, {r4, r5, r6, r7, r8, pc}
10002080:	683b      	ldr	r3, [r7, #0]
10002082:	eba5 010c 	sub.w	r1, r5, ip
10002086:	eb08 000c 	add.w	r0, r8, ip
1000208a:	4798      	blx	r3
1000208c:	e7ec      	b.n	10002068 <stdio_out_chars_crlf+0x3c>
1000208e:	7d03      	ldrb	r3, [r0, #20]
10002090:	2b00      	cmp	r3, #0
10002092:	d1d8      	bne.n	10002046 <stdio_out_chars_crlf+0x1a>
10002094:	6803      	ldr	r3, [r0, #0]
10002096:	2102      	movs	r1, #2
10002098:	480f      	ldr	r0, [pc, #60]	@ (100020d8 <stdio_out_chars_crlf+0xac>)
1000209a:	4798      	blx	r3
1000209c:	2d01      	cmp	r5, #1
1000209e:	d0e3      	beq.n	10002068 <stdio_out_chars_crlf+0x3c>
100020a0:	f04f 0c01 	mov.w	ip, #1
100020a4:	e7d3      	b.n	1000204e <stdio_out_chars_crlf+0x22>
100020a6:	f816 3c01 	ldrb.w	r3, [r6, #-1]
100020aa:	2b0d      	cmp	r3, #13
100020ac:	d0d8      	beq.n	10002060 <stdio_out_chars_crlf+0x34>
100020ae:	458c      	cmp	ip, r1
100020b0:	eb08 000c 	add.w	r0, r8, ip
100020b4:	eba1 010c 	sub.w	r1, r1, ip
100020b8:	da01      	bge.n	100020be <stdio_out_chars_crlf+0x92>
100020ba:	683b      	ldr	r3, [r7, #0]
100020bc:	4798      	blx	r3
100020be:	2102      	movs	r1, #2
100020c0:	4805      	ldr	r0, [pc, #20]	@ (100020d8 <stdio_out_chars_crlf+0xac>)
100020c2:	683b      	ldr	r3, [r7, #0]
100020c4:	4798      	blx	r3
100020c6:	46a4      	mov	ip, r4
100020c8:	e7ca      	b.n	10002060 <stdio_out_chars_crlf+0x34>
100020ca:	4629      	mov	r1, r5
100020cc:	4640      	mov	r0, r8
100020ce:	683b      	ldr	r3, [r7, #0]
100020d0:	e8bd 41f0 	ldmia.w	sp!, {r4, r5, r6, r7, r8, lr}
100020d4:	4718      	bx	r3
100020d6:	bf00      	nop
100020d8:	10003fc0 	.word	0x10003fc0

100020dc <stdio_put_string>:
100020dc:	e92d 47f0 	stmdb	sp!, {r4, r5, r6, r7, r8, r9, sl, lr}
100020e0:	b082      	sub	sp, #8
100020e2:	460d      	mov	r5, r1
100020e4:	4691      	mov	r9, r2
100020e6:	461c      	mov	r4, r3
100020e8:	4606      	mov	r6, r0
100020ea:	f7ff f91b 	bl	10001324 <time_us_64>
100020ee:	f04f 3cff 	mov.w	ip, #4294967295
100020f2:	f06f 4700 	mvn.w	r7, #2147483648	@ 0x80000000
100020f6:	4a2e      	ldr	r2, [pc, #184]	@ (100021b0 <stdio_put_string+0xd4>)
100020f8:	1882      	adds	r2, r0, r2
100020fa:	f141 0300 	adc.w	r3, r1, #0
100020fe:	4594      	cmp	ip, r2
10002100:	eb77 0103 	sbcs.w	r1, r7, r3
10002104:	bf3c      	itt	cc
10002106:	4662      	movcc	r2, ip
10002108:	463b      	movcc	r3, r7
1000210a:	482a      	ldr	r0, [pc, #168]	@ (100021b4 <stdio_put_string+0xd8>)
1000210c:	f001 fe2c 	bl	10003d68 <__mutex_try_enter_block_until_veneer>
10002110:	1c6b      	adds	r3, r5, #1
10002112:	4680      	mov	r8, r0
10002114:	d040      	beq.n	10002198 <stdio_put_string+0xbc>
10002116:	b30c      	cbz	r4, 1000215c <stdio_put_string+0x80>
10002118:	4f27      	ldr	r7, [pc, #156]	@ (100021b8 <stdio_put_string+0xdc>)
1000211a:	4b28      	ldr	r3, [pc, #160]	@ (100021bc <stdio_put_string+0xe0>)
1000211c:	681c      	ldr	r4, [r3, #0]
1000211e:	b1b4      	cbz	r4, 1000214e <stdio_put_string+0x72>
10002120:	f1b9 0f00 	cmp.w	r9, #0
10002124:	d11c      	bne.n	10002160 <stdio_put_string+0x84>
10002126:	f8df 909c 	ldr.w	r9, [pc, #156]	@ 100021c4 <stdio_put_string+0xe8>
1000212a:	e001      	b.n	10002130 <stdio_put_string+0x54>
1000212c:	6924      	ldr	r4, [r4, #16]
1000212e:	b174      	cbz	r4, 1000214e <stdio_put_string+0x72>
10002130:	6823      	ldr	r3, [r4, #0]
10002132:	2b00      	cmp	r3, #0
10002134:	d0fa      	beq.n	1000212c <stdio_put_string+0x50>
10002136:	f8d9 3000 	ldr.w	r3, [r9]
1000213a:	b10b      	cbz	r3, 10002140 <stdio_put_string+0x64>
1000213c:	429c      	cmp	r4, r3
1000213e:	d1f5      	bne.n	1000212c <stdio_put_string+0x50>
10002140:	4620      	mov	r0, r4
10002142:	462a      	mov	r2, r5
10002144:	4631      	mov	r1, r6
10002146:	47b8      	blx	r7
10002148:	6924      	ldr	r4, [r4, #16]
1000214a:	2c00      	cmp	r4, #0
1000214c:	d1f0      	bne.n	10002130 <stdio_put_string+0x54>
1000214e:	f1b8 0f00 	cmp.w	r8, #0
10002152:	d126      	bne.n	100021a2 <stdio_put_string+0xc6>
10002154:	4628      	mov	r0, r5
10002156:	b002      	add	sp, #8
10002158:	e8bd 87f0 	ldmia.w	sp!, {r4, r5, r6, r7, r8, r9, sl, pc}
1000215c:	4f18      	ldr	r7, [pc, #96]	@ (100021c0 <stdio_put_string+0xe4>)
1000215e:	e7dc      	b.n	1000211a <stdio_put_string+0x3e>
10002160:	f04f 0a0a 	mov.w	sl, #10
10002164:	f8df 905c 	ldr.w	r9, [pc, #92]	@ 100021c4 <stdio_put_string+0xe8>
10002168:	e002      	b.n	10002170 <stdio_put_string+0x94>
1000216a:	6924      	ldr	r4, [r4, #16]
1000216c:	2c00      	cmp	r4, #0
1000216e:	d0ee      	beq.n	1000214e <stdio_put_string+0x72>
10002170:	6823      	ldr	r3, [r4, #0]
10002172:	2b00      	cmp	r3, #0
10002174:	d0f9      	beq.n	1000216a <stdio_put_string+0x8e>
10002176:	f8d9 3000 	ldr.w	r3, [r9]
1000217a:	b10b      	cbz	r3, 10002180 <stdio_put_string+0xa4>
1000217c:	42a3      	cmp	r3, r4
1000217e:	d1f4      	bne.n	1000216a <stdio_put_string+0x8e>
10002180:	462a      	mov	r2, r5
10002182:	4631      	mov	r1, r6
10002184:	4620      	mov	r0, r4
10002186:	47b8      	blx	r7
10002188:	2201      	movs	r2, #1
1000218a:	4620      	mov	r0, r4
1000218c:	f10d 0107 	add.w	r1, sp, #7
10002190:	f88d a007 	strb.w	sl, [sp, #7]
10002194:	47b8      	blx	r7
10002196:	e7e8      	b.n	1000216a <stdio_put_string+0x8e>
10002198:	4630      	mov	r0, r6
1000219a:	f001 fd99 	bl	10003cd0 <strlen>
1000219e:	4605      	mov	r5, r0
100021a0:	e7b9      	b.n	10002116 <stdio_put_string+0x3a>
100021a2:	4804      	ldr	r0, [pc, #16]	@ (100021b4 <stdio_put_string+0xd8>)
100021a4:	f001 fdd0 	bl	10003d48 <__mutex_exit_veneer>
100021a8:	4628      	mov	r0, r5
100021aa:	b002      	add	sp, #8
100021ac:	e8bd 87f0 	ldmia.w	sp!, {r4, r5, r6, r7, r8, r9, sl, pc}
100021b0:	000f4240 	.word	0x000f4240
100021b4:	200011bc 	.word	0x200011bc
100021b8:	1000202d 	.word	0x1000202d
100021bc:	20001598 	.word	0x20001598
100021c0:	10002025 	.word	0x10002025
100021c4:	200015a0 	.word	0x200015a0

100021c8 <__wrap_putchar>:
100021c8:	b5f0      	push	{r4, r5, r6, r7, lr}
100021ca:	b083      	sub	sp, #12
100021cc:	4606      	mov	r6, r0
100021ce:	f88d 0007 	strb.w	r0, [sp, #7]
100021d2:	f7ff f8a7 	bl	10001324 <time_us_64>
100021d6:	f04f 35ff 	mov.w	r5, #4294967295
100021da:	f06f 4400 	mvn.w	r4, #2147483648	@ 0x80000000
100021de:	4a17      	ldr	r2, [pc, #92]	@ (1000223c <__wrap_putchar+0x74>)
100021e0:	1882      	adds	r2, r0, r2
100021e2:	f141 0300 	adc.w	r3, r1, #0
100021e6:	4295      	cmp	r5, r2
100021e8:	eb74 0103 	sbcs.w	r1, r4, r3
100021ec:	bf3c      	itt	cc
100021ee:	4623      	movcc	r3, r4
100021f0:	462a      	movcc	r2, r5
100021f2:	4813      	ldr	r0, [pc, #76]	@ (10002240 <__wrap_putchar+0x78>)
100021f4:	f001 fdb8 	bl	10003d68 <__mutex_try_enter_block_until_veneer>
100021f8:	4b12      	ldr	r3, [pc, #72]	@ (10002244 <__wrap_putchar+0x7c>)
100021fa:	4607      	mov	r7, r0
100021fc:	681c      	ldr	r4, [r3, #0]
100021fe:	b19c      	cbz	r4, 10002228 <__wrap_putchar+0x60>
10002200:	4d11      	ldr	r5, [pc, #68]	@ (10002248 <__wrap_putchar+0x80>)
10002202:	e001      	b.n	10002208 <__wrap_putchar+0x40>
10002204:	6924      	ldr	r4, [r4, #16]
10002206:	b17c      	cbz	r4, 10002228 <__wrap_putchar+0x60>
10002208:	6823      	ldr	r3, [r4, #0]
1000220a:	2b00      	cmp	r3, #0
1000220c:	d0fa      	beq.n	10002204 <__wrap_putchar+0x3c>
1000220e:	682b      	ldr	r3, [r5, #0]
10002210:	b10b      	cbz	r3, 10002216 <__wrap_putchar+0x4e>
10002212:	429c      	cmp	r4, r3
10002214:	d1f6      	bne.n	10002204 <__wrap_putchar+0x3c>
10002216:	4620      	mov	r0, r4
10002218:	2201      	movs	r2, #1
1000221a:	f10d 0107 	add.w	r1, sp, #7
1000221e:	f7ff ff05 	bl	1000202c <stdio_out_chars_crlf>
10002222:	6924      	ldr	r4, [r4, #16]
10002224:	2c00      	cmp	r4, #0
10002226:	d1ef      	bne.n	10002208 <__wrap_putchar+0x40>
10002228:	b917      	cbnz	r7, 10002230 <__wrap_putchar+0x68>
1000222a:	4630      	mov	r0, r6
1000222c:	b003      	add	sp, #12
1000222e:	bdf0      	pop	{r4, r5, r6, r7, pc}
10002230:	4803      	ldr	r0, [pc, #12]	@ (10002240 <__wrap_putchar+0x78>)
10002232:	f001 fd89 	bl	10003d48 <__mutex_exit_veneer>
10002236:	4630      	mov	r0, r6
10002238:	b003      	add	sp, #12
1000223a:	bdf0      	pop	{r4, r5, r6, r7, pc}
1000223c:	000f4240 	.word	0x000f4240
10002240:	200011bc 	.word	0x200011bc
10002244:	20001598 	.word	0x20001598
10002248:	200015a0 	.word	0x200015a0

1000224c <__wrap_puts>:
1000224c:	b538      	push	{r3, r4, r5, lr}
1000224e:	4604      	mov	r4, r0
10002250:	f001 fd3e 	bl	10003cd0 <strlen>
10002254:	2301      	movs	r3, #1
10002256:	4605      	mov	r5, r0
10002258:	461a      	mov	r2, r3
1000225a:	4620      	mov	r0, r4
1000225c:	4629      	mov	r1, r5
1000225e:	f7ff ff3d 	bl	100020dc <stdio_put_string>
10002262:	4b08      	ldr	r3, [pc, #32]	@ (10002284 <__wrap_puts+0x38>)
10002264:	681c      	ldr	r4, [r3, #0]
10002266:	b12c      	cbz	r4, 10002274 <__wrap_puts+0x28>
10002268:	6863      	ldr	r3, [r4, #4]
1000226a:	b12b      	cbz	r3, 10002278 <__wrap_puts+0x2c>
1000226c:	4798      	blx	r3
1000226e:	6924      	ldr	r4, [r4, #16]
10002270:	2c00      	cmp	r4, #0
10002272:	d1f9      	bne.n	10002268 <__wrap_puts+0x1c>
10002274:	4628      	mov	r0, r5
10002276:	bd38      	pop	{r3, r4, r5, pc}
10002278:	6924      	ldr	r4, [r4, #16]
1000227a:	2c00      	cmp	r4, #0
1000227c:	d1f4      	bne.n	10002268 <__wrap_puts+0x1c>
1000227e:	4628      	mov	r0, r5
10002280:	bd38      	pop	{r3, r4, r5, pc}
10002282:	bf00      	nop
10002284:	20001598 	.word	0x20001598

10002288 <i2c_read_blocking_internal.constprop.0>:
10002288:	b570      	push	{r4, r5, r6, lr}
1000228a:	2500      	movs	r5, #0
1000228c:	2601      	movs	r6, #1
1000228e:	6804      	ldr	r4, [r0, #0]
10002290:	2b00      	cmp	r3, #0
10002292:	66e5      	str	r5, [r4, #108]	@ 0x6c
10002294:	4684      	mov	ip, r0
10002296:	6061      	str	r1, [r4, #4]
10002298:	4628      	mov	r0, r5
1000229a:	f89d e010 	ldrb.w	lr, [sp, #16]
1000229e:	66e6      	str	r6, [r4, #108]	@ 0x6c
100022a0:	dd16      	ble.n	100022d0 <i2c_read_blocking_internal.constprop.0+0x48>
100022a2:	1e5d      	subs	r5, r3, #1
100022a4:	6f61      	ldr	r1, [r4, #116]	@ 0x74
100022a6:	2910      	cmp	r1, #16
100022a8:	d0fc      	beq.n	100022a4 <i2c_read_blocking_internal.constprop.0+0x1c>
100022aa:	b300      	cbz	r0, 100022ee <i2c_read_blocking_internal.constprop.0+0x66>
100022ac:	2100      	movs	r1, #0
100022ae:	42a8      	cmp	r0, r5
100022b0:	bf04      	itt	eq
100022b2:	f08e 0601 	eoreq.w	r6, lr, #1
100022b6:	ea41 2146 	orreq.w	r1, r1, r6, lsl #9
100022ba:	f441 7180 	orr.w	r1, r1, #256	@ 0x100
100022be:	6121      	str	r1, [r4, #16]
100022c0:	f8d4 1080 	ldr.w	r1, [r4, #128]	@ 0x80
100022c4:	6b61      	ldr	r1, [r4, #52]	@ 0x34
100022c6:	0649      	lsls	r1, r1, #25
100022c8:	d505      	bpl.n	100022d6 <i2c_read_blocking_internal.constprop.0+0x4e>
100022ca:	f04f 30ff 	mov.w	r0, #4294967295
100022ce:	6d63      	ldr	r3, [r4, #84]	@ 0x54
100022d0:	f88c e004 	strb.w	lr, [ip, #4]
100022d4:	bd70      	pop	{r4, r5, r6, pc}
100022d6:	6fa1      	ldr	r1, [r4, #120]	@ 0x78
100022d8:	2900      	cmp	r1, #0
100022da:	d0f1      	beq.n	100022c0 <i2c_read_blocking_internal.constprop.0+0x38>
100022dc:	6921      	ldr	r1, [r4, #16]
100022de:	3001      	adds	r0, #1
100022e0:	4283      	cmp	r3, r0
100022e2:	f802 1b01 	strb.w	r1, [r2], #1
100022e6:	d0f3      	beq.n	100022d0 <i2c_read_blocking_internal.constprop.0+0x48>
100022e8:	f8dc 4000 	ldr.w	r4, [ip]
100022ec:	e7da      	b.n	100022a4 <i2c_read_blocking_internal.constprop.0+0x1c>
100022ee:	f89c 1004 	ldrb.w	r1, [ip, #4]
100022f2:	0289      	lsls	r1, r1, #10
100022f4:	e7db      	b.n	100022ae <i2c_read_blocking_internal.constprop.0+0x26>
100022f6:	bf00      	nop

100022f8 <i2c_write_blocking_internal.constprop.0>:
100022f8:	e92d 41f0 	stmdb	sp!, {r4, r5, r6, r7, r8, lr}
100022fc:	2700      	movs	r7, #0
100022fe:	2401      	movs	r4, #1
10002300:	4694      	mov	ip, r2
10002302:	6802      	ldr	r2, [r0, #0]
10002304:	4605      	mov	r5, r0
10002306:	66d7      	str	r7, [r2, #108]	@ 0x6c
10002308:	6051      	str	r1, [r2, #4]
1000230a:	66d4      	str	r4, [r2, #108]	@ 0x6c
1000230c:	1e1c      	subs	r4, r3, #0
1000230e:	4638      	mov	r0, r7
10002310:	f89d 6018 	ldrb.w	r6, [sp, #24]
10002314:	dd1e      	ble.n	10002354 <i2c_write_blocking_internal.constprop.0+0x5c>
10002316:	7929      	ldrb	r1, [r5, #4]
10002318:	f086 0701 	eor.w	r7, r6, #1
1000231c:	0289      	lsls	r1, r1, #10
1000231e:	027f      	lsls	r7, r7, #9
10002320:	f104 3eff 	add.w	lr, r4, #4294967295
10002324:	4570      	cmp	r0, lr
10002326:	bf0c      	ite	eq
10002328:	46b8      	moveq	r8, r7
1000232a:	f04f 0800 	movne.w	r8, #0
1000232e:	f81c 3b01 	ldrb.w	r3, [ip], #1
10002332:	430b      	orrs	r3, r1
10002334:	ea43 0308 	orr.w	r3, r3, r8
10002338:	6113      	str	r3, [r2, #16]
1000233a:	6b53      	ldr	r3, [r2, #52]	@ 0x34
1000233c:	06d9      	lsls	r1, r3, #27
1000233e:	d5fc      	bpl.n	1000233a <i2c_write_blocking_internal.constprop.0+0x42>
10002340:	f8d2 1080 	ldr.w	r1, [r2, #128]	@ 0x80
10002344:	b949      	cbnz	r1, 1000235a <i2c_write_blocking_internal.constprop.0+0x62>
10002346:	4570      	cmp	r0, lr
10002348:	d01c      	beq.n	10002384 <i2c_write_blocking_internal.constprop.0+0x8c>
1000234a:	3001      	adds	r0, #1
1000234c:	4284      	cmp	r4, r0
1000234e:	f04f 0100 	mov.w	r1, #0
10002352:	d1e7      	bne.n	10002324 <i2c_write_blocking_internal.constprop.0+0x2c>
10002354:	712e      	strb	r6, [r5, #4]
10002356:	e8bd 81f0 	ldmia.w	sp!, {r4, r5, r6, r7, r8, pc}
1000235a:	f04f 0801 	mov.w	r8, #1
1000235e:	6d53      	ldr	r3, [r2, #84]	@ 0x54
10002360:	6b53      	ldr	r3, [r2, #52]	@ 0x34
10002362:	059b      	lsls	r3, r3, #22
10002364:	d5fc      	bpl.n	10002360 <i2c_write_blocking_internal.constprop.0+0x68>
10002366:	6e13      	ldr	r3, [r2, #96]	@ 0x60
10002368:	f1b8 0f00 	cmp.w	r8, #0
1000236c:	d0ed      	beq.n	1000234a <i2c_write_blocking_internal.constprop.0+0x52>
1000236e:	b169      	cbz	r1, 1000238c <i2c_write_blocking_internal.constprop.0+0x94>
10002370:	07cb      	lsls	r3, r1, #31
10002372:	d40b      	bmi.n	1000238c <i2c_write_blocking_internal.constprop.0+0x94>
10002374:	f011 0f08 	tst.w	r1, #8
10002378:	bf08      	it	eq
1000237a:	f04f 30ff 	moveq.w	r0, #4294967295
1000237e:	712e      	strb	r6, [r5, #4]
10002380:	e8bd 81f0 	ldmia.w	sp!, {r4, r5, r6, r7, r8, pc}
10002384:	2e00      	cmp	r6, #0
10002386:	d1e0      	bne.n	1000234a <i2c_write_blocking_internal.constprop.0+0x52>
10002388:	46b0      	mov	r8, r6
1000238a:	e7e9      	b.n	10002360 <i2c_write_blocking_internal.constprop.0+0x68>
1000238c:	f04f 30ff 	mov.w	r0, #4294967295
10002390:	e7e0      	b.n	10002354 <i2c_write_blocking_internal.constprop.0+0x5c>
10002392:	bf00      	nop

10002394 <i2c_set_baudrate>:
10002394:	b5f8      	push	{r3, r4, r5, r6, r7, lr}
10002396:	4604      	mov	r4, r0
10002398:	2005      	movs	r0, #5
1000239a:	460f      	mov	r7, r1
1000239c:	f7ff f846 	bl	1000142c <clock_get_hz>
100023a0:	eb00 0c57 	add.w	ip, r0, r7, lsr #1
100023a4:	fbbc fcf7 	udiv	ip, ip, r7
100023a8:	4d20      	ldr	r5, [pc, #128]	@ (1000242c <i2c_set_baudrate+0x98>)
100023aa:	eb0c 024c 	add.w	r2, ip, ip, lsl #1
100023ae:	fba5 6502 	umull	r6, r5, r5, r2
100023b2:	491f      	ldr	r1, [pc, #124]	@ (10002430 <i2c_set_baudrate+0x9c>)
100023b4:	08ae      	lsrs	r6, r5, #2
100023b6:	428f      	cmp	r7, r1
100023b8:	eb00 0340 	add.w	r3, r0, r0, lsl #1
100023bc:	ebac 0595 	sub.w	r5, ip, r5, lsr #2
100023c0:	d82e      	bhi.n	10002420 <i2c_set_baudrate+0x8c>
100023c2:	f101 41d6 	add.w	r1, r1, #1795162112	@ 0x6b000000
100023c6:	f501 01a1 	add.w	r1, r1, #5275648	@ 0x508000
100023ca:	f601 012c 	addw	r1, r1, #2092	@ 0x82c
100023ce:	fba1 1303 	umull	r1, r3, r1, r3
100023d2:	0d9b      	lsrs	r3, r3, #22
100023d4:	3301      	adds	r3, #1
100023d6:	2100      	movs	r1, #0
100023d8:	2a4f      	cmp	r2, #79	@ 0x4f
100023da:	bf98      	it	ls
100023dc:	2201      	movls	r2, #1
100023de:	6824      	ldr	r4, [r4, #0]
100023e0:	fbb0 f0fc 	udiv	r0, r0, ip
100023e4:	66e1      	str	r1, [r4, #108]	@ 0x6c
100023e6:	6821      	ldr	r1, [r4, #0]
100023e8:	f504 5780 	add.w	r7, r4, #4096	@ 0x1000
100023ec:	f081 0104 	eor.w	r1, r1, #4
100023f0:	f001 0106 	and.w	r1, r1, #6
100023f4:	6039      	str	r1, [r7, #0]
100023f6:	bf88      	it	hi
100023f8:	490c      	ldrhi	r1, [pc, #48]	@ (1000242c <i2c_set_baudrate+0x98>)
100023fa:	61e5      	str	r5, [r4, #28]
100023fc:	bf84      	itt	hi
100023fe:	fba1 1202 	umullhi	r1, r2, r1, r2
10002402:	0992      	lsrhi	r2, r2, #6
10002404:	6226      	str	r6, [r4, #32]
10002406:	f8c4 20a0 	str.w	r2, [r4, #160]	@ 0xa0
1000240a:	4622      	mov	r2, r4
1000240c:	2101      	movs	r1, #1
1000240e:	f852 5f7c 	ldr.w	r5, [r2, #124]!
10002412:	406b      	eors	r3, r5
10002414:	b29b      	uxth	r3, r3
10002416:	f502 5280 	add.w	r2, r2, #4096	@ 0x1000
1000241a:	6013      	str	r3, [r2, #0]
1000241c:	66e1      	str	r1, [r4, #108]	@ 0x6c
1000241e:	bdf8      	pop	{r3, r4, r5, r6, r7, pc}
10002420:	4904      	ldr	r1, [pc, #16]	@ (10002434 <i2c_set_baudrate+0xa0>)
10002422:	fba1 1303 	umull	r1, r3, r1, r3
10002426:	0ddb      	lsrs	r3, r3, #23
10002428:	3301      	adds	r3, #1
1000242a:	e7d4      	b.n	100023d6 <i2c_set_baudrate+0x42>
1000242c:	cccccccd 	.word	0xcccccccd
10002430:	000f423f 	.word	0x000f423f
10002434:	55e63b89 	.word	0x55e63b89

10002438 <i2c_init>:
10002438:	4a0e      	ldr	r2, [pc, #56]	@ (10002474 <i2c_init+0x3c>)
1000243a:	b430      	push	{r4, r5}
1000243c:	4290      	cmp	r0, r2
1000243e:	bf14      	ite	ne
10002440:	2220      	movne	r2, #32
10002442:	2210      	moveq	r2, #16
10002444:	4d0c      	ldr	r5, [pc, #48]	@ (10002478 <i2c_init+0x40>)
10002446:	4b0d      	ldr	r3, [pc, #52]	@ (1000247c <i2c_init+0x44>)
10002448:	4c0d      	ldr	r4, [pc, #52]	@ (10002480 <i2c_init+0x48>)
1000244a:	602a      	str	r2, [r5, #0]
1000244c:	601a      	str	r2, [r3, #0]
1000244e:	68a3      	ldr	r3, [r4, #8]
10002450:	ea32 0303 	bics.w	r3, r2, r3
10002454:	d1fb      	bne.n	1000244e <i2c_init+0x16>
10002456:	f240 1565 	movw	r5, #357	@ 0x165
1000245a:	2403      	movs	r4, #3
1000245c:	6802      	ldr	r2, [r0, #0]
1000245e:	7103      	strb	r3, [r0, #4]
10002460:	66d3      	str	r3, [r2, #108]	@ 0x6c
10002462:	6015      	str	r5, [r2, #0]
10002464:	63d3      	str	r3, [r2, #60]	@ 0x3c
10002466:	6393      	str	r3, [r2, #56]	@ 0x38
10002468:	f8c2 4088 	str.w	r4, [r2, #136]	@ 0x88
1000246c:	bc30      	pop	{r4, r5}
1000246e:	f7ff bf91 	b.w	10002394 <i2c_set_baudrate>
10002472:	bf00      	nop
10002474:	20001194 	.word	0x20001194
10002478:	40022000 	.word	0x40022000
1000247c:	40023000 	.word	0x40023000
10002480:	40020000 	.word	0x40020000

10002484 <i2c_write_blocking>:
10002484:	b410      	push	{r4}
10002486:	f89d 4004 	ldrb.w	r4, [sp, #4]
1000248a:	9401      	str	r4, [sp, #4]
1000248c:	f85d 4b04 	ldr.w	r4, [sp], #4
10002490:	f7ff bf32 	b.w	100022f8 <i2c_write_blocking_internal.constprop.0>

10002494 <i2c_read_blocking>:
10002494:	b410      	push	{r4}
10002496:	f89d 4004 	ldrb.w	r4, [sp, #4]
1000249a:	9401      	str	r4, [sp, #4]
1000249c:	f85d 4b04 	ldr.w	r4, [sp], #4
100024a0:	f7ff bef2 	b.w	10002288 <i2c_read_blocking_internal.constprop.0>

100024a4 <dcd_init>:
100024a4:	b570      	push	{r4, r5, r6, lr}
100024a6:	f000 f92d 	bl	10002704 <rp2040_usb_init>
100024aa:	230c      	movs	r3, #12
100024ac:	2640      	movs	r6, #64	@ 0x40
100024ae:	4c19      	ldr	r4, [pc, #100]	@ (10002514 <dcd_init+0x70>)
100024b0:	22ff      	movs	r2, #255	@ 0xff
100024b2:	67a3      	str	r3, [r4, #120]	@ 0x78
100024b4:	200e      	movs	r0, #14
100024b6:	4918      	ldr	r1, [pc, #96]	@ (10002518 <dcd_init+0x74>)
100024b8:	f7fe f9ee 	bl	10000898 <irq_add_shared_handler>
100024bc:	4632      	mov	r2, r6
100024be:	2100      	movs	r1, #0
100024c0:	4816      	ldr	r0, [pc, #88]	@ (1000251c <dcd_init+0x78>)
100024c2:	f001 fb41 	bl	10003b48 <memset>
100024c6:	2501      	movs	r5, #1
100024c8:	2300      	movs	r3, #0
100024ca:	2180      	movs	r1, #128	@ 0x80
100024cc:	4813      	ldr	r0, [pc, #76]	@ (1000251c <dcd_init+0x78>)
100024ce:	4a14      	ldr	r2, [pc, #80]	@ (10002520 <dcd_init+0x7c>)
100024d0:	8441      	strh	r1, [r0, #34]	@ 0x22
100024d2:	7045      	strb	r5, [r0, #1]
100024d4:	8306      	strh	r6, [r0, #24]
100024d6:	8706      	strh	r6, [r0, #56]	@ 0x38
100024d8:	6082      	str	r2, [r0, #8]
100024da:	6043      	str	r3, [r0, #4]
100024dc:	6013      	str	r3, [r2, #0]
100024de:	f842 3c04 	str.w	r3, [r2, #-4]
100024e2:	f880 3021 	strb.w	r3, [r0, #33]	@ 0x21
100024e6:	f880 303b 	strb.w	r3, [r0, #59]	@ 0x3b
100024ea:	6243      	str	r3, [r0, #36]	@ 0x24
100024ec:	4b0d      	ldr	r3, [pc, #52]	@ (10002524 <dcd_init+0x80>)
100024ee:	f04f 5600 	mov.w	r6, #536870912	@ 0x20000000
100024f2:	60c3      	str	r3, [r0, #12]
100024f4:	62c3      	str	r3, [r0, #44]	@ 0x2c
100024f6:	3b80      	subs	r3, #128	@ 0x80
100024f8:	6283      	str	r3, [r0, #40]	@ 0x28
100024fa:	f001 fc29 	bl	10003d50 <__reset_non_control_endpoints_veneer>
100024fe:	f44f 3280 	mov.w	r2, #65536	@ 0x10000
10002502:	4909      	ldr	r1, [pc, #36]	@ (10002528 <dcd_init+0x84>)
10002504:	4b09      	ldr	r3, [pc, #36]	@ (1000252c <dcd_init+0x88>)
10002506:	6425      	str	r5, [r4, #64]	@ 0x40
10002508:	4628      	mov	r0, r5
1000250a:	64e6      	str	r6, [r4, #76]	@ 0x4c
1000250c:	f8c4 1090 	str.w	r1, [r4, #144]	@ 0x90
10002510:	64da      	str	r2, [r3, #76]	@ 0x4c
10002512:	bd70      	pop	{r4, r5, r6, pc}
10002514:	50110000 	.word	0x50110000
10002518:	2000034d 	.word	0x2000034d
1000251c:	200015a4 	.word	0x200015a4
10002520:	50100084 	.word	0x50100084
10002524:	50100100 	.word	0x50100100
10002528:	0001d010 	.word	0x0001d010
1000252c:	50112000 	.word	0x50112000

10002530 <dcd_int_enable>:
10002530:	2101      	movs	r1, #1
10002532:	200e      	movs	r0, #14
10002534:	f7fe b96a 	b.w	1000080c <irq_set_enabled>

10002538 <dcd_set_address>:
10002538:	2200      	movs	r2, #0
1000253a:	4802      	ldr	r0, [pc, #8]	@ (10002544 <dcd_set_address+0xc>)
1000253c:	4611      	mov	r1, r2
1000253e:	f000 b901 	b.w	10002744 <hw_endpoint_xfer_start>
10002542:	bf00      	nop
10002544:	200015c4 	.word	0x200015c4

10002548 <dcd_sof_enable>:
10002548:	4b04      	ldr	r3, [pc, #16]	@ (1000255c <dcd_sof_enable+0x14>)
1000254a:	7019      	strb	r1, [r3, #0]
1000254c:	b121      	cbz	r1, 10002558 <dcd_sof_enable+0x10>
1000254e:	f44f 3200 	mov.w	r2, #131072	@ 0x20000
10002552:	4b03      	ldr	r3, [pc, #12]	@ (10002560 <dcd_sof_enable+0x18>)
10002554:	f8c3 2090 	str.w	r2, [r3, #144]	@ 0x90
10002558:	4770      	bx	lr
1000255a:	bf00      	nop
1000255c:	200019f1 	.word	0x200019f1
10002560:	50112000 	.word	0x50112000

10002564 <dcd_edpt0_status_complete>:
10002564:	780b      	ldrb	r3, [r1, #0]
10002566:	065b      	lsls	r3, r3, #25
10002568:	d102      	bne.n	10002570 <dcd_edpt0_status_complete+0xc>
1000256a:	784b      	ldrb	r3, [r1, #1]
1000256c:	2b05      	cmp	r3, #5
1000256e:	d000      	beq.n	10002572 <dcd_edpt0_status_complete+0xe>
10002570:	4770      	bx	lr
10002572:	884b      	ldrh	r3, [r1, #2]
10002574:	4a01      	ldr	r2, [pc, #4]	@ (1000257c <dcd_edpt0_status_complete+0x18>)
10002576:	b2db      	uxtb	r3, r3
10002578:	6013      	str	r3, [r2, #0]
1000257a:	4770      	bx	lr
1000257c:	50110000 	.word	0x50110000

10002580 <dcd_edpt_open>:
10002580:	78cb      	ldrb	r3, [r1, #3]
10002582:	e92d 41f0 	stmdb	sp!, {r4, r5, r6, r7, r8, lr}
10002586:	f003 0e03 	and.w	lr, r3, #3
1000258a:	f1be 0f01 	cmp.w	lr, #1
1000258e:	f3c3 0001 	ubfx	r0, r3, #0, #2
10002592:	d05b      	beq.n	1000264c <dcd_edpt_open+0xcc>
10002594:	2700      	movs	r7, #0
10002596:	f891 c002 	ldrb.w	ip, [r1, #2]
1000259a:	4c34      	ldr	r4, [pc, #208]	@ (1000266c <dcd_edpt_open+0xec>)
1000259c:	f00c 027f 	and.w	r2, ip, #127	@ 0x7f
100025a0:	0056      	lsls	r6, r2, #1
100025a2:	8889      	ldrh	r1, [r1, #4]
100025a4:	eb06 13dc 	add.w	r3, r6, ip, lsr #7
100025a8:	eb04 1343 	add.w	r3, r4, r3, lsl #5
100025ac:	ea4f 15dc 	mov.w	r5, ip, lsr #7
100025b0:	76d8      	strb	r0, [r3, #27]
100025b2:	f3c1 010a 	ubfx	r1, r1, #0, #11
100025b6:	f085 0001 	eor.w	r0, r5, #1
100025ba:	f883 c002 	strb.w	ip, [r3, #2]
100025be:	8319      	strh	r1, [r3, #24]
100025c0:	7058      	strb	r0, [r3, #1]
100025c2:	70df      	strb	r7, [r3, #3]
100025c4:	00d3      	lsls	r3, r2, #3
100025c6:	bb8d      	cbnz	r5, 1000262c <dcd_edpt_open+0xac>
100025c8:	4829      	ldr	r0, [pc, #164]	@ (10002670 <dcd_edpt_open+0xf0>)
100025ca:	3304      	adds	r3, #4
100025cc:	eb04 1c82 	add.w	ip, r4, r2, lsl #6
100025d0:	eb03 0800 	add.w	r8, r3, r0
100025d4:	f8cc 8008 	str.w	r8, [ip, #8]
100025d8:	501f      	str	r7, [r3, r0]
100025da:	b382      	cbz	r2, 1000263e <dcd_edpt_open+0xbe>
100025dc:	4b25      	ldr	r3, [pc, #148]	@ (10002674 <dcd_edpt_open+0xf4>)
100025de:	00d2      	lsls	r2, r2, #3
100025e0:	4413      	add	r3, r2
100025e2:	f8cc 3004 	str.w	r3, [ip, #4]
100025e6:	4b24      	ldr	r3, [pc, #144]	@ (10002678 <dcd_edpt_open+0xf8>)
100025e8:	313f      	adds	r1, #63	@ 0x3f
100025ea:	681a      	ldr	r2, [r3, #0]
100025ec:	f021 013f 	bic.w	r1, r1, #63	@ 0x3f
100025f0:	f1be 0f02 	cmp.w	lr, #2
100025f4:	bf08      	it	eq
100025f6:	0049      	lsleq	r1, r1, #1
100025f8:	4411      	add	r1, r2
100025fa:	6019      	str	r1, [r3, #0]
100025fc:	4b1f      	ldr	r3, [pc, #124]	@ (1000267c <dcd_edpt_open+0xfc>)
100025fe:	1977      	adds	r7, r6, r5
10002600:	eb04 1747 	add.w	r7, r4, r7, lsl #5
10002604:	4299      	cmp	r1, r3
10002606:	60fa      	str	r2, [r7, #12]
10002608:	d82b      	bhi.n	10002662 <dcd_edpt_open+0xe2>
1000260a:	442e      	add	r6, r5
1000260c:	eb04 1346 	add.w	r3, r4, r6, lsl #5
10002610:	7ed9      	ldrb	r1, [r3, #27]
10002612:	f082 42a0 	eor.w	r2, r2, #1342177280	@ 0x50000000
10002616:	f482 1280 	eor.w	r2, r2, #1048576	@ 0x100000
1000261a:	685b      	ldr	r3, [r3, #4]
1000261c:	ea42 6281 	orr.w	r2, r2, r1, lsl #26
10002620:	f042 4200 	orr.w	r2, r2, #2147483648	@ 0x80000000
10002624:	601a      	str	r2, [r3, #0]
10002626:	2001      	movs	r0, #1
10002628:	e8bd 81f0 	ldmia.w	sp!, {r4, r5, r6, r7, r8, pc}
1000262c:	4810      	ldr	r0, [pc, #64]	@ (10002670 <dcd_edpt_open+0xf0>)
1000262e:	eb04 1c82 	add.w	ip, r4, r2, lsl #6
10002632:	4403      	add	r3, r0
10002634:	f8cc 3028 	str.w	r3, [ip, #40]	@ 0x28
10002638:	f840 7032 	str.w	r7, [r0, r2, lsl #3]
1000263c:	b94a      	cbnz	r2, 10002652 <dcd_edpt_open+0xd2>
1000263e:	2200      	movs	r2, #0
10002640:	490f      	ldr	r1, [pc, #60]	@ (10002680 <dcd_edpt_open+0x100>)
10002642:	eb04 1345 	add.w	r3, r4, r5, lsl #5
10002646:	60d9      	str	r1, [r3, #12]
10002648:	605a      	str	r2, [r3, #4]
1000264a:	e7ec      	b.n	10002626 <dcd_edpt_open+0xa6>
1000264c:	2000      	movs	r0, #0
1000264e:	e8bd 81f0 	ldmia.w	sp!, {r4, r5, r6, r7, r8, pc}
10002652:	00d2      	lsls	r2, r2, #3
10002654:	f102 42a0 	add.w	r2, r2, #1342177280	@ 0x50000000
10002658:	f502 1280 	add.w	r2, r2, #1048576	@ 0x100000
1000265c:	f8cc 2024 	str.w	r2, [ip, #36]	@ 0x24
10002660:	e7c1      	b.n	100025e6 <dcd_edpt_open+0x66>
10002662:	f7fe ff79 	bl	10001558 <hard_assertion_failure>
10002666:	68fa      	ldr	r2, [r7, #12]
10002668:	e7cf      	b.n	1000260a <dcd_edpt_open+0x8a>
1000266a:	bf00      	nop
1000266c:	200015a4 	.word	0x200015a4
10002670:	50100080 	.word	0x50100080
10002674:	50100004 	.word	0x50100004
10002678:	200019a8 	.word	0x200019a8
1000267c:	50100fff 	.word	0x50100fff
10002680:	50100100 	.word	0x50100100

10002684 <dcd_edpt_close_all>:
10002684:	f001 bb64 	b.w	10003d50 <__reset_non_control_endpoints_veneer>

10002688 <dcd_edpt_xfer>:
10002688:	468c      	mov	ip, r1
1000268a:	b508      	push	{r3, lr}
1000268c:	4611      	mov	r1, r2
1000268e:	4807      	ldr	r0, [pc, #28]	@ (100026ac <dcd_edpt_xfer+0x24>)
10002690:	461a      	mov	r2, r3
10002692:	f00c 037f 	and.w	r3, ip, #127	@ 0x7f
10002696:	ea4f 1cdc 	mov.w	ip, ip, lsr #7
1000269a:	eb0c 0c43 	add.w	ip, ip, r3, lsl #1
1000269e:	eb00 104c 	add.w	r0, r0, ip, lsl #5
100026a2:	f000 f84f 	bl	10002744 <hw_endpoint_xfer_start>
100026a6:	2001      	movs	r0, #1
100026a8:	bd08      	pop	{r3, pc}
100026aa:	bf00      	nop
100026ac:	200015a4 	.word	0x200015a4

100026b0 <dcd_edpt_stall>:
100026b0:	f011 027f 	ands.w	r2, r1, #127	@ 0x7f
100026b4:	d105      	bne.n	100026c2 <dcd_edpt_stall+0x12>
100026b6:	2900      	cmp	r1, #0
100026b8:	bf0c      	ite	eq
100026ba:	2002      	moveq	r0, #2
100026bc:	2001      	movne	r0, #1
100026be:	4b06      	ldr	r3, [pc, #24]	@ (100026d8 <dcd_edpt_stall+0x28>)
100026c0:	6698      	str	r0, [r3, #104]	@ 0x68
100026c2:	09c9      	lsrs	r1, r1, #7
100026c4:	4b05      	ldr	r3, [pc, #20]	@ (100026dc <dcd_edpt_stall+0x2c>)
100026c6:	eb01 0042 	add.w	r0, r1, r2, lsl #1
100026ca:	eb03 1040 	add.w	r0, r3, r0, lsl #5
100026ce:	f44f 6200 	mov.w	r2, #2048	@ 0x800
100026d2:	2100      	movs	r1, #0
100026d4:	f001 bb44 	b.w	10003d60 <___hw_endpoint_buffer_control_update32_veneer>
100026d8:	50112000 	.word	0x50112000
100026dc:	200015a4 	.word	0x200015a4

100026e0 <dcd_edpt_clear_stall>:
100026e0:	f011 037f 	ands.w	r3, r1, #127	@ 0x7f
100026e4:	d100      	bne.n	100026e8 <dcd_edpt_clear_stall+0x8>
100026e6:	4770      	bx	lr
100026e8:	2200      	movs	r2, #0
100026ea:	4805      	ldr	r0, [pc, #20]	@ (10002700 <dcd_edpt_clear_stall+0x20>)
100026ec:	005b      	lsls	r3, r3, #1
100026ee:	eb03 13d1 	add.w	r3, r3, r1, lsr #7
100026f2:	eb00 1043 	add.w	r0, r0, r3, lsl #5
100026f6:	f46f 6100 	mvn.w	r1, #2048	@ 0x800
100026fa:	70c2      	strb	r2, [r0, #3]
100026fc:	f001 bb30 	b.w	10003d60 <___hw_endpoint_buffer_control_update32_veneer>
10002700:	200015a4 	.word	0x200015a4

10002704 <rp2040_usb_init>:
10002704:	f04f 5280 	mov.w	r2, #268435456	@ 0x10000000
10002708:	4809      	ldr	r0, [pc, #36]	@ (10002730 <rp2040_usb_init+0x2c>)
1000270a:	490a      	ldr	r1, [pc, #40]	@ (10002734 <rp2040_usb_init+0x30>)
1000270c:	b508      	push	{r3, lr}
1000270e:	4b0a      	ldr	r3, [pc, #40]	@ (10002738 <rp2040_usb_init+0x34>)
10002710:	6002      	str	r2, [r0, #0]
10002712:	600a      	str	r2, [r1, #0]
10002714:	6899      	ldr	r1, [r3, #8]
10002716:	43c9      	mvns	r1, r1
10002718:	f011 5180 	ands.w	r1, r1, #268435456	@ 0x10000000
1000271c:	d1fa      	bne.n	10002714 <rp2040_usb_init+0x10>
1000271e:	f44f 5280 	mov.w	r2, #4096	@ 0x1000
10002722:	4806      	ldr	r0, [pc, #24]	@ (1000273c <rp2040_usb_init+0x38>)
10002724:	f001 fa10 	bl	10003b48 <memset>
10002728:	2209      	movs	r2, #9
1000272a:	4b05      	ldr	r3, [pc, #20]	@ (10002740 <rp2040_usb_init+0x3c>)
1000272c:	675a      	str	r2, [r3, #116]	@ 0x74
1000272e:	bd08      	pop	{r3, pc}
10002730:	40022000 	.word	0x40022000
10002734:	40023000 	.word	0x40023000
10002738:	40020000 	.word	0x40020000
1000273c:	50100000 	.word	0x50100000
10002740:	50110000 	.word	0x50110000

10002744 <hw_endpoint_xfer_start>:
10002744:	2300      	movs	r3, #0
10002746:	f04f 0c01 	mov.w	ip, #1
1000274a:	b510      	push	{r4, lr}
1000274c:	f880 c01a 	strb.w	ip, [r0, #26]
10002750:	8282      	strh	r2, [r0, #20]
10002752:	82c3      	strh	r3, [r0, #22]
10002754:	6101      	str	r1, [r0, #16]
10002756:	4604      	mov	r4, r0
10002758:	f001 fb0a 	bl	10003d70 <__e15_is_bulkin_ep_veneer>
1000275c:	b120      	cbz	r0, 10002768 <hw_endpoint_xfer_start+0x24>
1000275e:	f44f 3200 	mov.w	r2, #131072	@ 0x20000
10002762:	4b07      	ldr	r3, [pc, #28]	@ (10002780 <hw_endpoint_xfer_start+0x3c>)
10002764:	f8c3 2090 	str.w	r2, [r3, #144]	@ 0x90
10002768:	4620      	mov	r0, r4
1000276a:	f001 faf5 	bl	10003d58 <__e15_is_critical_frame_period_veneer>
1000276e:	b110      	cbz	r0, 10002776 <hw_endpoint_xfer_start+0x32>
10002770:	2301      	movs	r3, #1
10002772:	7723      	strb	r3, [r4, #28]
10002774:	bd10      	pop	{r4, pc}
10002776:	4620      	mov	r0, r4
10002778:	e8bd 4010 	ldmia.w	sp!, {r4, lr}
1000277c:	f001 badc 	b.w	10003d38 <__hw_endpoint_start_next_buffer_veneer>
10002780:	50112000 	.word	0x50112000

10002784 <tud_vendor_control_xfer_cb>:
10002784:	2000      	movs	r0, #0
10002786:	4770      	bx	lr

10002788 <configuration_reset>:
10002788:	e92d 41f0 	stmdb	sp!, {r4, r5, r6, r7, r8, lr}
1000278c:	f04f 0800 	mov.w	r8, #0
10002790:	4d1c      	ldr	r5, [pc, #112]	@ (10002804 <configuration_reset+0x7c>)
10002792:	4604      	mov	r4, r0
10002794:	4642      	mov	r2, r8
10002796:	782b      	ldrb	r3, [r5, #0]
10002798:	4f1b      	ldr	r7, [pc, #108]	@ (10002808 <configuration_reset+0x80>)
1000279a:	4e1c      	ldr	r6, [pc, #112]	@ (1000280c <configuration_reset+0x84>)
1000279c:	e00d      	b.n	100027ba <configuration_reset+0x32>
1000279e:	6833      	ldr	r3, [r6, #0]
100027a0:	eb13 1342 	adds.w	r3, r3, r2, lsl #5
100027a4:	d024      	beq.n	100027f0 <configuration_reset+0x68>
100027a6:	68db      	ldr	r3, [r3, #12]
100027a8:	4620      	mov	r0, r4
100027aa:	4798      	blx	r3
100027ac:	f108 0801 	add.w	r8, r8, #1
100027b0:	782b      	ldrb	r3, [r5, #0]
100027b2:	fa5f f288 	uxtb.w	r2, r8
100027b6:	4293      	cmp	r3, r2
100027b8:	d306      	bcc.n	100027c8 <configuration_reset+0x40>
100027ba:	4293      	cmp	r3, r2
100027bc:	eba2 0303 	sub.w	r3, r2, r3
100027c0:	d8ed      	bhi.n	1000279e <configuration_reset+0x16>
100027c2:	eb07 1343 	add.w	r3, r7, r3, lsl #5
100027c6:	e7ee      	b.n	100027a6 <configuration_reset+0x1e>
100027c8:	2254      	movs	r2, #84	@ 0x54
100027ca:	2100      	movs	r1, #0
100027cc:	4810      	ldr	r0, [pc, #64]	@ (10002810 <configuration_reset+0x88>)
100027ce:	f001 f9bb 	bl	10003b48 <memset>
100027d2:	f04f 33ff 	mov.w	r3, #4294967295
100027d6:	480e      	ldr	r0, [pc, #56]	@ (10002810 <configuration_reset+0x88>)
100027d8:	2220      	movs	r2, #32
100027da:	1d04      	adds	r4, r0, #4
100027dc:	6043      	str	r3, [r0, #4]
100027de:	e9c4 3301 	strd	r3, r3, [r4, #4]
100027e2:	60e3      	str	r3, [r4, #12]
100027e4:	21ff      	movs	r1, #255	@ 0xff
100027e6:	e8bd 41f0 	ldmia.w	sp!, {r4, r5, r6, r7, r8, lr}
100027ea:	3014      	adds	r0, #20
100027ec:	f001 b9ac 	b.w	10003b48 <memset>
100027f0:	f04f 23e0 	mov.w	r3, #3758153728	@ 0xe000e000
100027f4:	f8d3 3df0 	ldr.w	r3, [r3, #3568]	@ 0xdf0
100027f8:	07db      	lsls	r3, r3, #31
100027fa:	d500      	bpl.n	100027fe <configuration_reset+0x76>
100027fc:	be00      	bkpt	0x0000
100027fe:	e8bd 81f0 	ldmia.w	sp!, {r4, r5, r6, r7, r8, pc}
10002802:	bf00      	nop
10002804:	200019f0 	.word	0x200019f0
10002808:	10003fc4 	.word	0x10003fc4
1000280c:	20001348 	.word	0x20001348
10002810:	2000144c 	.word	0x2000144c

10002814 <tud_event_hook_cb>:
10002814:	4770      	bx	lr
10002816:	bf00      	nop

10002818 <tud_sof_cb>:
10002818:	4770      	bx	lr
1000281a:	bf00      	nop

1000281c <tud_descriptor_bos_cb>:
1000281c:	2000      	movs	r0, #0
1000281e:	4770      	bx	lr

10002820 <tud_descriptor_device_qualifier_cb>:
10002820:	2000      	movs	r0, #0
10002822:	4770      	bx	lr

10002824 <tud_descriptor_other_speed_configuration_cb>:
10002824:	2000      	movs	r0, #0
10002826:	4770      	bx	lr

10002828 <tud_mount_cb>:
10002828:	4770      	bx	lr
1000282a:	bf00      	nop

1000282c <tud_umount_cb>:
1000282c:	4770      	bx	lr
1000282e:	bf00      	nop

10002830 <tud_suspend_cb>:
10002830:	4770      	bx	lr
10002832:	bf00      	nop

10002834 <tud_resume_cb>:
10002834:	4770      	bx	lr
10002836:	bf00      	nop

10002838 <tud_mounted>:
10002838:	4b02      	ldr	r3, [pc, #8]	@ (10002844 <tud_mounted+0xc>)
1000283a:	7858      	ldrb	r0, [r3, #1]
1000283c:	3800      	subs	r0, #0
1000283e:	bf18      	it	ne
10002840:	2001      	movne	r0, #1
10002842:	4770      	bx	lr
10002844:	2000144c 	.word	0x2000144c

10002848 <tud_suspended>:
10002848:	4b02      	ldr	r3, [pc, #8]	@ (10002854 <tud_suspended+0xc>)
1000284a:	7818      	ldrb	r0, [r3, #0]
1000284c:	f3c0 0080 	ubfx	r0, r0, #2, #1
10002850:	4770      	bx	lr
10002852:	bf00      	nop
10002854:	2000144c 	.word	0x2000144c

10002858 <tud_rhport_init>:
10002858:	e92d 47f0 	stmdb	sp!, {r4, r5, r6, r7, r8, r9, sl, lr}
1000285c:	f8df 90e4 	ldr.w	r9, [pc, #228]	@ 10002944 <tud_rhport_init+0xec>
10002860:	f899 3000 	ldrb.w	r3, [r9]
10002864:	2bff      	cmp	r3, #255	@ 0xff
10002866:	d155      	bne.n	10002914 <tud_rhport_init+0xbc>
10002868:	460d      	mov	r5, r1
1000286a:	2900      	cmp	r1, #0
1000286c:	d03d      	beq.n	100028ea <tud_rhport_init+0x92>
1000286e:	2100      	movs	r1, #0
10002870:	2254      	movs	r2, #84	@ 0x54
10002872:	4606      	mov	r6, r0
10002874:	4829      	ldr	r0, [pc, #164]	@ (1000291c <tud_rhport_init+0xc4>)
10002876:	f001 f967 	bl	10003b48 <memset>
1000287a:	2200      	movs	r2, #0
1000287c:	4c28      	ldr	r4, [pc, #160]	@ (10002920 <tud_rhport_init+0xc8>)
1000287e:	4b29      	ldr	r3, [pc, #164]	@ (10002924 <tud_rhport_init+0xcc>)
10002880:	4620      	mov	r0, r4
10002882:	701a      	strb	r2, [r3, #0]
10002884:	f7fe f986 	bl	10000b94 <mutex_init>
10002888:	4b27      	ldr	r3, [pc, #156]	@ (10002928 <tud_rhport_init+0xd0>)
1000288a:	4828      	ldr	r0, [pc, #160]	@ (1000292c <tud_rhport_init+0xd4>)
1000288c:	601c      	str	r4, [r3, #0]
1000288e:	4c28      	ldr	r4, [pc, #160]	@ (10002930 <tud_rhport_init+0xd8>)
10002890:	f7fe f98e 	bl	10000bb0 <critical_section_init>
10002894:	4620      	mov	r0, r4
10002896:	f001 f909 	bl	10003aac <tu_fifo_clear>
1000289a:	4a26      	ldr	r2, [pc, #152]	@ (10002934 <tud_rhport_init+0xdc>)
1000289c:	4b26      	ldr	r3, [pc, #152]	@ (10002938 <tud_rhport_init+0xe0>)
1000289e:	6014      	str	r4, [r2, #0]
100028a0:	b123      	cbz	r3, 100028ac <tud_rhport_init+0x54>
100028a2:	4826      	ldr	r0, [pc, #152]	@ (1000293c <tud_rhport_init+0xe4>)
100028a4:	f3af 8000 	nop.w
100028a8:	4b25      	ldr	r3, [pc, #148]	@ (10002940 <tud_rhport_init+0xe8>)
100028aa:	6018      	str	r0, [r3, #0]
100028ac:	f04f 0a00 	mov.w	sl, #0
100028b0:	4c22      	ldr	r4, [pc, #136]	@ (1000293c <tud_rhport_init+0xe4>)
100028b2:	4653      	mov	r3, sl
100028b4:	7822      	ldrb	r2, [r4, #0]
100028b6:	f8df 8090 	ldr.w	r8, [pc, #144]	@ 10002948 <tud_rhport_init+0xf0>
100028ba:	4f21      	ldr	r7, [pc, #132]	@ (10002940 <tud_rhport_init+0xe8>)
100028bc:	e00d      	b.n	100028da <tud_rhport_init+0x82>
100028be:	683a      	ldr	r2, [r7, #0]
100028c0:	eb12 1343 	adds.w	r3, r2, r3, lsl #5
100028c4:	d011      	beq.n	100028ea <tud_rhport_init+0x92>
100028c6:	685b      	ldr	r3, [r3, #4]
100028c8:	b17b      	cbz	r3, 100028ea <tud_rhport_init+0x92>
100028ca:	4798      	blx	r3
100028cc:	f10a 0a01 	add.w	sl, sl, #1
100028d0:	7822      	ldrb	r2, [r4, #0]
100028d2:	fa5f f38a 	uxtb.w	r3, sl
100028d6:	4293      	cmp	r3, r2
100028d8:	d811      	bhi.n	100028fe <tud_rhport_init+0xa6>
100028da:	4293      	cmp	r3, r2
100028dc:	d3ef      	bcc.n	100028be <tud_rhport_init+0x66>
100028de:	1a9b      	subs	r3, r3, r2
100028e0:	eb08 1343 	add.w	r3, r8, r3, lsl #5
100028e4:	685b      	ldr	r3, [r3, #4]
100028e6:	2b00      	cmp	r3, #0
100028e8:	d1ef      	bne.n	100028ca <tud_rhport_init+0x72>
100028ea:	f04f 23e0 	mov.w	r3, #3758153728	@ 0xe000e000
100028ee:	f8d3 3df0 	ldr.w	r3, [r3, #3568]	@ 0xdf0
100028f2:	07db      	lsls	r3, r3, #31
100028f4:	d500      	bpl.n	100028f8 <tud_rhport_init+0xa0>
100028f6:	be00      	bkpt	0x0000
100028f8:	2000      	movs	r0, #0
100028fa:	e8bd 87f0 	ldmia.w	sp!, {r4, r5, r6, r7, r8, r9, sl, pc}
100028fe:	4629      	mov	r1, r5
10002900:	4630      	mov	r0, r6
10002902:	f889 6000 	strb.w	r6, [r9]
10002906:	f7ff fdcd 	bl	100024a4 <dcd_init>
1000290a:	2800      	cmp	r0, #0
1000290c:	d0ed      	beq.n	100028ea <tud_rhport_init+0x92>
1000290e:	4630      	mov	r0, r6
10002910:	f7ff fe0e 	bl	10002530 <dcd_int_enable>
10002914:	2001      	movs	r0, #1
10002916:	e8bd 87f0 	ldmia.w	sp!, {r4, r5, r6, r7, r8, r9, sl, pc}
1000291a:	bf00      	nop
1000291c:	2000144c 	.word	0x2000144c
10002920:	20001444 	.word	0x20001444
10002924:	200019f2 	.word	0x200019f2
10002928:	200014a0 	.word	0x200014a0
1000292c:	200011b0 	.word	0x200011b0
10002930:	2000119c 	.word	0x2000119c
10002934:	200014a4 	.word	0x200014a4
10002938:	00000000 	.word	0x00000000
1000293c:	200019f0 	.word	0x200019f0
10002940:	20001348 	.word	0x20001348
10002944:	200011b8 	.word	0x200011b8
10002948:	10003fc4 	.word	0x10003fc4

1000294c <tud_task_ext>:
1000294c:	e92d 4ff0 	stmdb	sp!, {r4, r5, r6, r7, r8, r9, sl, fp, lr}
10002950:	f8df a2ac 	ldr.w	sl, [pc, #684]	@ 10002c00 <tud_task_ext+0x2b4>
10002954:	b08b      	sub	sp, #44	@ 0x2c
10002956:	f89a 3000 	ldrb.w	r3, [sl]
1000295a:	2bff      	cmp	r3, #255	@ 0xff
1000295c:	f000 80e8 	beq.w	10002b30 <tud_task_ext+0x1e4>
10002960:	4ca0      	ldr	r4, [pc, #640]	@ (10002be4 <tud_task_ext+0x298>)
10002962:	4da1      	ldr	r5, [pc, #644]	@ (10002be8 <tud_task_ext+0x29c>)
10002964:	f8df b294 	ldr.w	fp, [pc, #660]	@ 10002bfc <tud_task_ext+0x2b0>
10002968:	4ea0      	ldr	r6, [pc, #640]	@ (10002bec <tud_task_ext+0x2a0>)
1000296a:	6827      	ldr	r7, [r4, #0]
1000296c:	697b      	ldr	r3, [r7, #20]
1000296e:	f3ef 8210 	mrs	r2, PRIMASK
10002972:	b672      	cpsid	i
10002974:	e8d3 0fcf 	ldaexb	r0, [r3]
10002978:	2101      	movs	r1, #1
1000297a:	2800      	cmp	r0, #0
1000297c:	d1fa      	bne.n	10002974 <tud_task_ext+0x28>
1000297e:	e8c3 1f40 	strexb	r0, r1, [r3]
10002982:	2800      	cmp	r0, #0
10002984:	d1f6      	bne.n	10002974 <tud_task_ext+0x28>
10002986:	f3bf 8f5f 	dmb	sy
1000298a:	61ba      	str	r2, [r7, #24]
1000298c:	4638      	mov	r0, r7
1000298e:	a907      	add	r1, sp, #28
10002990:	f000 fff0 	bl	10003974 <tu_fifo_read>
10002994:	2300      	movs	r3, #0
10002996:	697a      	ldr	r2, [r7, #20]
10002998:	e8c2 3f8f 	stlb	r3, [r2]
1000299c:	69bb      	ldr	r3, [r7, #24]
1000299e:	f383 8810 	msr	PRIMASK, r3
100029a2:	2800      	cmp	r0, #0
100029a4:	f000 80c4 	beq.w	10002b30 <tud_task_ext+0x1e4>
100029a8:	f89d 301d 	ldrb.w	r3, [sp, #29]
100029ac:	3b01      	subs	r3, #1
100029ae:	2b07      	cmp	r3, #7
100029b0:	f200 836a 	bhi.w	10003088 <tud_task_ext+0x73c>
100029b4:	e8df f003 	tbb	[pc, r3]
100029b8:	978faba1 	.word	0x978faba1
100029bc:	040a3588 	.word	0x040a3588
100029c0:	9b08      	ldr	r3, [sp, #32]
100029c2:	2b00      	cmp	r3, #0
100029c4:	d0d1      	beq.n	1000296a <tud_task_ext+0x1e>
100029c6:	9809      	ldr	r0, [sp, #36]	@ 0x24
100029c8:	4798      	blx	r3
100029ca:	e7ce      	b.n	1000296a <tud_task_ext+0x1e>
100029cc:	f89d 1020 	ldrb.w	r1, [sp, #32]
100029d0:	f001 077f 	and.w	r7, r1, #127	@ 0x7f
100029d4:	eb05 0047 	add.w	r0, r5, r7, lsl #1
100029d8:	eb00 10d1 	add.w	r0, r0, r1, lsr #7
100029dc:	f890 3034 	ldrb.w	r3, [r0, #52]	@ 0x34
100029e0:	f023 0301 	bic.w	r3, r3, #1
100029e4:	f880 3034 	strb.w	r3, [r0, #52]	@ 0x34
100029e8:	f890 3034 	ldrb.w	r3, [r0, #52]	@ 0x34
100029ec:	f023 0304 	bic.w	r3, r3, #4
100029f0:	f880 3034 	strb.w	r3, [r0, #52]	@ 0x34
100029f4:	2f00      	cmp	r7, #0
100029f6:	f000 809e 	beq.w	10002b36 <tud_task_ext+0x1ea>
100029fa:	7d02      	ldrb	r2, [r0, #20]
100029fc:	f89b 3000 	ldrb.w	r3, [fp]
10002a00:	429a      	cmp	r2, r3
10002a02:	f080 808d 	bcs.w	10002b20 <tud_task_ext+0x1d4>
10002a06:	4b7a      	ldr	r3, [pc, #488]	@ (10002bf0 <tud_task_ext+0x2a4>)
10002a08:	681b      	ldr	r3, [r3, #0]
10002a0a:	eb13 1342 	adds.w	r3, r3, r2, lsl #5
10002a0e:	f000 8088 	beq.w	10002b22 <tud_task_ext+0x1d6>
10002a12:	699f      	ldr	r7, [r3, #24]
10002a14:	f89d 2021 	ldrb.w	r2, [sp, #33]	@ 0x21
10002a18:	9b09      	ldr	r3, [sp, #36]	@ 0x24
10002a1a:	f89d 001c 	ldrb.w	r0, [sp, #28]
10002a1e:	47b8      	blx	r7
10002a20:	e7a3      	b.n	1000296a <tud_task_ext+0x1e>
10002a22:	7833      	ldrb	r3, [r6, #0]
10002a24:	2b00      	cmp	r3, #0
10002a26:	d07c      	beq.n	10002b22 <tud_task_ext+0x1d6>
10002a28:	7833      	ldrb	r3, [r6, #0]
10002a2a:	3b01      	subs	r3, #1
10002a2c:	b2db      	uxtb	r3, r3
10002a2e:	7033      	strb	r3, [r6, #0]
10002a30:	7833      	ldrb	r3, [r6, #0]
10002a32:	f003 00ff 	and.w	r0, r3, #255	@ 0xff
10002a36:	2b00      	cmp	r3, #0
10002a38:	d197      	bne.n	1000296a <tud_task_ext+0x1e>
10002a3a:	4f6b      	ldr	r7, [pc, #428]	@ (10002be8 <tud_task_ext+0x29c>)
10002a3c:	f89d 901c 	ldrb.w	r9, [sp, #28]
10002a40:	783b      	ldrb	r3, [r7, #0]
10002a42:	f043 0301 	orr.w	r3, r3, #1
10002a46:	703b      	strb	r3, [r7, #0]
10002a48:	f897 3034 	ldrb.w	r3, [r7, #52]	@ 0x34
10002a4c:	f360 0300 	bfi	r3, r0, #0, #1
10002a50:	f887 3034 	strb.w	r3, [r7, #52]	@ 0x34
10002a54:	f897 3034 	ldrb.w	r3, [r7, #52]	@ 0x34
10002a58:	f360 0382 	bfi	r3, r0, #2, #1
10002a5c:	f887 3034 	strb.w	r3, [r7, #52]	@ 0x34
10002a60:	f897 3035 	ldrb.w	r3, [r7, #53]	@ 0x35
10002a64:	f360 0300 	bfi	r3, r0, #0, #1
10002a68:	f887 3035 	strb.w	r3, [r7, #53]	@ 0x35
10002a6c:	f897 3035 	ldrb.w	r3, [r7, #53]	@ 0x35
10002a70:	f360 0382 	bfi	r3, r0, #2, #1
10002a74:	f887 3035 	strb.w	r3, [r7, #53]	@ 0x35
10002a78:	f000 fc36 	bl	100032e8 <usbd_control_set_complete_callback>
10002a7c:	f89d 3020 	ldrb.w	r3, [sp, #32]
10002a80:	f003 0260 	and.w	r2, r3, #96	@ 0x60
10002a84:	2a60      	cmp	r2, #96	@ 0x60
10002a86:	d066      	beq.n	10002b56 <tud_task_ext+0x20a>
10002a88:	2a40      	cmp	r2, #64	@ 0x40
10002a8a:	d076      	beq.n	10002b7a <tud_task_ext+0x22e>
10002a8c:	f003 031f 	and.w	r3, r3, #31
10002a90:	2b01      	cmp	r3, #1
10002a92:	f000 80b7 	beq.w	10002c04 <tud_task_ext+0x2b8>
10002a96:	2b02      	cmp	r3, #2
10002a98:	d07b      	beq.n	10002b92 <tud_task_ext+0x246>
10002a9a:	2b00      	cmp	r3, #0
10002a9c:	d15b      	bne.n	10002b56 <tud_task_ext+0x20a>
10002a9e:	2a20      	cmp	r2, #32
10002aa0:	f000 81de 	beq.w	10002e60 <tud_task_ext+0x514>
10002aa4:	2a00      	cmp	r2, #0
10002aa6:	d156      	bne.n	10002b56 <tud_task_ext+0x20a>
10002aa8:	f89d 3021 	ldrb.w	r3, [sp, #33]	@ 0x21
10002aac:	2b09      	cmp	r3, #9
10002aae:	d852      	bhi.n	10002b56 <tud_task_ext+0x20a>
10002ab0:	e8df f013 	tbh	[pc, r3, lsl #1]
10002ab4:	019701a5 	.word	0x019701a5
10002ab8:	01b60051 	.word	0x01b60051
10002abc:	018a0051 	.word	0x018a0051
10002ac0:	0051015f 	.word	0x0051015f
10002ac4:	00e70154 	.word	0x00e70154
10002ac8:	782b      	ldrb	r3, [r5, #0]
10002aca:	07d9      	lsls	r1, r3, #31
10002acc:	f57f af4d 	bpl.w	1000296a <tud_task_ext+0x1e>
10002ad0:	f7ff feb0 	bl	10002834 <tud_resume_cb>
10002ad4:	e749      	b.n	1000296a <tud_task_ext+0x1e>
10002ad6:	78eb      	ldrb	r3, [r5, #3]
10002ad8:	07da      	lsls	r2, r3, #31
10002ada:	f57f af46 	bpl.w	1000296a <tud_task_ext+0x1e>
10002ade:	9808      	ldr	r0, [sp, #32]
10002ae0:	f7ff fe9a 	bl	10002818 <tud_sof_cb>
10002ae4:	e741      	b.n	1000296a <tud_task_ext+0x1e>
10002ae6:	782b      	ldrb	r3, [r5, #0]
10002ae8:	07d8      	lsls	r0, r3, #31
10002aea:	f57f af3e 	bpl.w	1000296a <tud_task_ext+0x1e>
10002aee:	7828      	ldrb	r0, [r5, #0]
10002af0:	f3c0 00c0 	ubfx	r0, r0, #3, #1
10002af4:	f7ff fe9c 	bl	10002830 <tud_suspend_cb>
10002af8:	e737      	b.n	1000296a <tud_task_ext+0x1e>
10002afa:	f89d 001c 	ldrb.w	r0, [sp, #28]
10002afe:	f7ff fe43 	bl	10002788 <configuration_reset>
10002b02:	f000 fbe7 	bl	100032d4 <usbd_control_reset>
10002b06:	f89d 3020 	ldrb.w	r3, [sp, #32]
10002b0a:	70ab      	strb	r3, [r5, #2]
10002b0c:	e72d      	b.n	1000296a <tud_task_ext+0x1e>
10002b0e:	f89d 001c 	ldrb.w	r0, [sp, #28]
10002b12:	f7ff fe39 	bl	10002788 <configuration_reset>
10002b16:	f000 fbdd 	bl	100032d4 <usbd_control_reset>
10002b1a:	f7ff fe87 	bl	1000282c <tud_umount_cb>
10002b1e:	e724      	b.n	1000296a <tud_task_ext+0x1e>
10002b20:	d011      	beq.n	10002b46 <tud_task_ext+0x1fa>
10002b22:	f04f 23e0 	mov.w	r3, #3758153728	@ 0xe000e000
10002b26:	f8d3 3df0 	ldr.w	r3, [r3, #3568]	@ 0xdf0
10002b2a:	07dc      	lsls	r4, r3, #31
10002b2c:	d500      	bpl.n	10002b30 <tud_task_ext+0x1e4>
10002b2e:	be00      	bkpt	0x0000
10002b30:	b00b      	add	sp, #44	@ 0x2c
10002b32:	e8bd 8ff0 	ldmia.w	sp!, {r4, r5, r6, r7, r8, r9, sl, fp, pc}
10002b36:	9b09      	ldr	r3, [sp, #36]	@ 0x24
10002b38:	f89d 2021 	ldrb.w	r2, [sp, #33]	@ 0x21
10002b3c:	f89d 001c 	ldrb.w	r0, [sp, #28]
10002b40:	f000 fbe6 	bl	10003310 <usbd_control_xfer_cb>
10002b44:	e711      	b.n	1000296a <tud_task_ext+0x1e>
10002b46:	4b2b      	ldr	r3, [pc, #172]	@ (10002bf4 <tud_task_ext+0x2a8>)
10002b48:	e763      	b.n	10002a12 <tud_task_ext+0xc6>
10002b4a:	f7fd fca9 	bl	100004a0 <tud_descriptor_configuration_cb>
10002b4e:	4602      	mov	r2, r0
10002b50:	2800      	cmp	r0, #0
10002b52:	f040 817c 	bne.w	10002e4e <tud_task_ext+0x502>
10002b56:	f04f 23e0 	mov.w	r3, #3758153728	@ 0xe000e000
10002b5a:	f8d3 3df0 	ldr.w	r3, [r3, #3568]	@ 0xdf0
10002b5e:	07df      	lsls	r7, r3, #31
10002b60:	d500      	bpl.n	10002b64 <tud_task_ext+0x218>
10002b62:	be00      	bkpt	0x0000
10002b64:	f89d 001c 	ldrb.w	r0, [sp, #28]
10002b68:	2100      	movs	r1, #0
10002b6a:	f7ff fda1 	bl	100026b0 <dcd_edpt_stall>
10002b6e:	2180      	movs	r1, #128	@ 0x80
10002b70:	f89d 001c 	ldrb.w	r0, [sp, #28]
10002b74:	f7ff fd9c 	bl	100026b0 <dcd_edpt_stall>
10002b78:	e6f7      	b.n	1000296a <tud_task_ext+0x1e>
10002b7a:	481f      	ldr	r0, [pc, #124]	@ (10002bf8 <tud_task_ext+0x2ac>)
10002b7c:	f000 fbb4 	bl	100032e8 <usbd_control_set_complete_callback>
10002b80:	2101      	movs	r1, #1
10002b82:	4648      	mov	r0, r9
10002b84:	aa08      	add	r2, sp, #32
10002b86:	f7ff fdfd 	bl	10002784 <tud_vendor_control_xfer_cb>
10002b8a:	2800      	cmp	r0, #0
10002b8c:	f47f aeed 	bne.w	1000296a <tud_task_ext+0x1e>
10002b90:	e7e8      	b.n	10002b64 <tud_task_ext+0x218>
10002b92:	f89d 1024 	ldrb.w	r1, [sp, #36]	@ 0x24
10002b96:	f011 0f70 	tst.w	r1, #112	@ 0x70
10002b9a:	d1dc      	bne.n	10002b56 <tud_task_ext+0x20a>
10002b9c:	4b17      	ldr	r3, [pc, #92]	@ (10002bfc <tud_task_ext+0x2b0>)
10002b9e:	f001 087f 	and.w	r8, r1, #127	@ 0x7f
10002ba2:	7818      	ldrb	r0, [r3, #0]
10002ba4:	eb07 0348 	add.w	r3, r7, r8, lsl #1
10002ba8:	eb03 13d1 	add.w	r3, r3, r1, lsr #7
10002bac:	f893 c014 	ldrb.w	ip, [r3, #20]
10002bb0:	ea4f 0848 	mov.w	r8, r8, lsl #1
10002bb4:	4584      	cmp	ip, r0
10002bb6:	ea4f 13d1 	mov.w	r3, r1, lsr #7
10002bba:	d350      	bcc.n	10002c5e <tud_task_ext+0x312>
10002bbc:	f040 816d 	bne.w	10002e9a <tud_task_ext+0x54e>
10002bc0:	480c      	ldr	r0, [pc, #48]	@ (10002bf4 <tud_task_ext+0x2a8>)
10002bc2:	9001      	str	r0, [sp, #4]
10002bc4:	2a00      	cmp	r2, #0
10002bc6:	f000 816c 	beq.w	10002ea2 <tud_task_ext+0x556>
10002bca:	9f01      	ldr	r7, [sp, #4]
10002bcc:	6978      	ldr	r0, [r7, #20]
10002bce:	f000 fb8b 	bl	100032e8 <usbd_control_set_complete_callback>
10002bd2:	2101      	movs	r1, #1
10002bd4:	4648      	mov	r0, r9
10002bd6:	697b      	ldr	r3, [r7, #20]
10002bd8:	aa08      	add	r2, sp, #32
10002bda:	4798      	blx	r3
10002bdc:	2800      	cmp	r0, #0
10002bde:	f47f aec4 	bne.w	1000296a <tud_task_ext+0x1e>
10002be2:	e7bf      	b.n	10002b64 <tud_task_ext+0x218>
10002be4:	200014a4 	.word	0x200014a4
10002be8:	2000144c 	.word	0x2000144c
10002bec:	200019f2 	.word	0x200019f2
10002bf0:	20001348 	.word	0x20001348
10002bf4:	10003fc4 	.word	0x10003fc4
10002bf8:	10002785 	.word	0x10002785
10002bfc:	200019f0 	.word	0x200019f0
10002c00:	200011b8 	.word	0x200011b8
10002c04:	f89d 3024 	ldrb.w	r3, [sp, #36]	@ 0x24
10002c08:	2b0f      	cmp	r3, #15
10002c0a:	d8ab      	bhi.n	10002b64 <tud_task_ext+0x218>
10002c0c:	4ab0      	ldr	r2, [pc, #704]	@ (10002ed0 <tud_task_ext+0x584>)
10002c0e:	443b      	add	r3, r7
10002c10:	791b      	ldrb	r3, [r3, #4]
10002c12:	7812      	ldrb	r2, [r2, #0]
10002c14:	4293      	cmp	r3, r2
10002c16:	d32e      	bcc.n	10002c76 <tud_task_ext+0x32a>
10002c18:	d1a4      	bne.n	10002b64 <tud_task_ext+0x218>
10002c1a:	4fae      	ldr	r7, [pc, #696]	@ (10002ed4 <tud_task_ext+0x588>)
10002c1c:	6978      	ldr	r0, [r7, #20]
10002c1e:	f000 fb63 	bl	100032e8 <usbd_control_set_complete_callback>
10002c22:	2101      	movs	r1, #1
10002c24:	4648      	mov	r0, r9
10002c26:	697b      	ldr	r3, [r7, #20]
10002c28:	aa08      	add	r2, sp, #32
10002c2a:	4798      	blx	r3
10002c2c:	2800      	cmp	r0, #0
10002c2e:	f47f ae9c 	bne.w	1000296a <tud_task_ext+0x1e>
10002c32:	f89d 3020 	ldrb.w	r3, [sp, #32]
10002c36:	f013 0760 	ands.w	r7, r3, #96	@ 0x60
10002c3a:	d193      	bne.n	10002b64 <tud_task_ext+0x218>
10002c3c:	f89d 3021 	ldrb.w	r3, [sp, #33]	@ 0x21
10002c40:	3b0a      	subs	r3, #10
10002c42:	2b01      	cmp	r3, #1
10002c44:	d88e      	bhi.n	10002b64 <tud_task_ext+0x218>
10002c46:	f000 fb4f 	bl	100032e8 <usbd_control_set_complete_callback>
10002c4a:	f89d 3021 	ldrb.w	r3, [sp, #33]	@ 0x21
10002c4e:	2b0a      	cmp	r3, #10
10002c50:	f000 81fb 	beq.w	1000304a <tud_task_ext+0x6fe>
10002c54:	4648      	mov	r0, r9
10002c56:	a908      	add	r1, sp, #32
10002c58:	f000 faca 	bl	100031f0 <tud_control_status>
10002c5c:	e685      	b.n	1000296a <tud_task_ext+0x1e>
10002c5e:	489e      	ldr	r0, [pc, #632]	@ (10002ed8 <tud_task_ext+0x58c>)
10002c60:	6800      	ldr	r0, [r0, #0]
10002c62:	eb00 104c 	add.w	r0, r0, ip, lsl #5
10002c66:	9001      	str	r0, [sp, #4]
10002c68:	2a00      	cmp	r2, #0
10002c6a:	f000 811a 	beq.w	10002ea2 <tud_task_ext+0x556>
10002c6e:	2800      	cmp	r0, #0
10002c70:	f43f af78 	beq.w	10002b64 <tud_task_ext+0x218>
10002c74:	e7a9      	b.n	10002bca <tud_task_ext+0x27e>
10002c76:	4a98      	ldr	r2, [pc, #608]	@ (10002ed8 <tud_task_ext+0x58c>)
10002c78:	6817      	ldr	r7, [r2, #0]
10002c7a:	eb17 1743 	adds.w	r7, r7, r3, lsl #5
10002c7e:	d1cd      	bne.n	10002c1c <tud_task_ext+0x2d0>
10002c80:	e770      	b.n	10002b64 <tud_task_ext+0x218>
10002c82:	787b      	ldrb	r3, [r7, #1]
10002c84:	f89d 8022 	ldrb.w	r8, [sp, #34]	@ 0x22
10002c88:	4598      	cmp	r8, r3
10002c8a:	f000 815a 	beq.w	10002f42 <tud_task_ext+0x5f6>
10002c8e:	787b      	ldrb	r3, [r7, #1]
10002c90:	2b00      	cmp	r3, #0
10002c92:	f040 81c6 	bne.w	10003022 <tud_task_ext+0x6d6>
10002c96:	f887 8001 	strb.w	r8, [r7, #1]
10002c9a:	f1b8 0f00 	cmp.w	r8, #0
10002c9e:	f000 814e 	beq.w	10002f3e <tud_task_ext+0x5f2>
10002ca2:	f108 30ff 	add.w	r0, r8, #4294967295
10002ca6:	b2c0      	uxtb	r0, r0
10002ca8:	f7fd fbfa 	bl	100004a0 <tud_descriptor_configuration_cb>
10002cac:	4601      	mov	r1, r0
10002cae:	2800      	cmp	r0, #0
10002cb0:	f000 8164 	beq.w	10002f7c <tud_task_ext+0x630>
10002cb4:	7843      	ldrb	r3, [r0, #1]
10002cb6:	2b02      	cmp	r3, #2
10002cb8:	f040 8160 	bne.w	10002f7c <tud_task_ext+0x630>
10002cbc:	79c2      	ldrb	r2, [r0, #7]
10002cbe:	7838      	ldrb	r0, [r7, #0]
10002cc0:	f3c2 1340 	ubfx	r3, r2, #5, #1
10002cc4:	011b      	lsls	r3, r3, #4
10002cc6:	f3c2 1280 	ubfx	r2, r2, #6, #1
10002cca:	f020 0030 	bic.w	r0, r0, #48	@ 0x30
10002cce:	ea43 1342 	orr.w	r3, r3, r2, lsl #5
10002cd2:	4303      	orrs	r3, r0
10002cd4:	703b      	strb	r3, [r7, #0]
10002cd6:	884b      	ldrh	r3, [r1, #2]
10002cd8:	f8cd 900c 	str.w	r9, [sp, #12]
10002cdc:	18cb      	adds	r3, r1, r3
10002cde:	9301      	str	r3, [sp, #4]
10002ce0:	3109      	adds	r1, #9
10002ce2:	9b01      	ldr	r3, [sp, #4]
10002ce4:	428b      	cmp	r3, r1
10002ce6:	f240 81ab 	bls.w	10003040 <tud_task_ext+0x6f4>
10002cea:	784b      	ldrb	r3, [r1, #1]
10002cec:	2b0b      	cmp	r3, #11
10002cee:	f000 81b6 	beq.w	1000305e <tud_task_ext+0x712>
10002cf2:	f04f 0c01 	mov.w	ip, #1
10002cf6:	2b04      	cmp	r3, #4
10002cf8:	f040 8140 	bne.w	10002f7c <tud_task_ext+0x630>
10002cfc:	f04f 0900 	mov.w	r9, #0
10002d00:	9b01      	ldr	r3, [sp, #4]
10002d02:	46c8      	mov	r8, r9
10002d04:	1a5b      	subs	r3, r3, r1
10002d06:	b29b      	uxth	r3, r3
10002d08:	9302      	str	r3, [sp, #8]
10002d0a:	4b71      	ldr	r3, [pc, #452]	@ (10002ed0 <tud_task_ext+0x584>)
10002d0c:	f8cd c010 	str.w	ip, [sp, #16]
10002d10:	781b      	ldrb	r3, [r3, #0]
10002d12:	e01b      	b.n	10002d4c <tud_task_ext+0x400>
10002d14:	4b70      	ldr	r3, [pc, #448]	@ (10002ed8 <tud_task_ext+0x58c>)
10002d16:	681b      	ldr	r3, [r3, #0]
10002d18:	eb13 1348 	adds.w	r3, r3, r8, lsl #5
10002d1c:	f000 812e 	beq.w	10002f7c <tud_task_ext+0x630>
10002d20:	9a02      	ldr	r2, [sp, #8]
10002d22:	691b      	ldr	r3, [r3, #16]
10002d24:	9803      	ldr	r0, [sp, #12]
10002d26:	9105      	str	r1, [sp, #20]
10002d28:	4798      	blx	r3
10002d2a:	2808      	cmp	r0, #8
10002d2c:	4602      	mov	r2, r0
10002d2e:	9905      	ldr	r1, [sp, #20]
10002d30:	f109 0901 	add.w	r9, r9, #1
10002d34:	d903      	bls.n	10002d3e <tud_task_ext+0x3f2>
10002d36:	9b02      	ldr	r3, [sp, #8]
10002d38:	4283      	cmp	r3, r0
10002d3a:	f080 8107 	bcs.w	10002f4c <tud_task_ext+0x600>
10002d3e:	4b64      	ldr	r3, [pc, #400]	@ (10002ed0 <tud_task_ext+0x584>)
10002d40:	fa5f f889 	uxtb.w	r8, r9
10002d44:	781b      	ldrb	r3, [r3, #0]
10002d46:	4543      	cmp	r3, r8
10002d48:	f0c0 8118 	bcc.w	10002f7c <tud_task_ext+0x630>
10002d4c:	4543      	cmp	r3, r8
10002d4e:	eba8 0303 	sub.w	r3, r8, r3
10002d52:	d8df      	bhi.n	10002d14 <tud_task_ext+0x3c8>
10002d54:	4a5f      	ldr	r2, [pc, #380]	@ (10002ed4 <tud_task_ext+0x588>)
10002d56:	eb02 1343 	add.w	r3, r2, r3, lsl #5
10002d5a:	e7e1      	b.n	10002d20 <tud_task_ext+0x3d4>
10002d5c:	787b      	ldrb	r3, [r7, #1]
10002d5e:	4648      	mov	r0, r9
10002d60:	f88d 301a 	strb.w	r3, [sp, #26]
10002d64:	f10d 021a 	add.w	r2, sp, #26
10002d68:	2301      	movs	r3, #1
10002d6a:	a908      	add	r1, sp, #32
10002d6c:	f000 fa5a 	bl	10003224 <tud_control_xfer>
10002d70:	e5fb      	b.n	1000296a <tud_task_ext+0x1e>
10002d72:	f8bd 0022 	ldrh.w	r0, [sp, #34]	@ 0x22
10002d76:	0a03      	lsrs	r3, r0, #8
10002d78:	3b01      	subs	r3, #1
10002d7a:	0a02      	lsrs	r2, r0, #8
10002d7c:	b2c0      	uxtb	r0, r0
10002d7e:	2b0e      	cmp	r3, #14
10002d80:	f63f aef0 	bhi.w	10002b64 <tud_task_ext+0x218>
10002d84:	a101      	add	r1, pc, #4	@ (adr r1, 10002d8c <tud_task_ext+0x440>)
10002d86:	f851 f023 	ldr.w	pc, [r1, r3, lsl #2]
10002d8a:	bf00      	nop
10002d8c:	10002fad 	.word	0x10002fad
10002d90:	10002e3d 	.word	0x10002e3d
10002d94:	10002fe9 	.word	0x10002fe9
10002d98:	10002b65 	.word	0x10002b65
10002d9c:	10002b65 	.word	0x10002b65
10002da0:	10002fcb 	.word	0x10002fcb
10002da4:	10002e3d 	.word	0x10002e3d
10002da8:	10002b65 	.word	0x10002b65
10002dac:	10002b65 	.word	0x10002b65
10002db0:	10002b65 	.word	0x10002b65
10002db4:	10002b65 	.word	0x10002b65
10002db8:	10002b65 	.word	0x10002b65
10002dbc:	10002b65 	.word	0x10002b65
10002dc0:	10002b65 	.word	0x10002b65
10002dc4:	10002f9f 	.word	0x10002f9f
10002dc8:	a808      	add	r0, sp, #32
10002dca:	f000 fa93 	bl	100032f4 <usbd_control_set_request>
10002dce:	4648      	mov	r0, r9
10002dd0:	f89d 1022 	ldrb.w	r1, [sp, #34]	@ 0x22
10002dd4:	f7ff fbb0 	bl	10002538 <dcd_set_address>
10002dd8:	783b      	ldrb	r3, [r7, #0]
10002dda:	f043 0302 	orr.w	r3, r3, #2
10002dde:	703b      	strb	r3, [r7, #0]
10002de0:	e5c3      	b.n	1000296a <tud_task_ext+0x1e>
10002de2:	f8bd 3022 	ldrh.w	r3, [sp, #34]	@ 0x22
10002de6:	2b01      	cmp	r3, #1
10002de8:	f47f aebc 	bne.w	10002b64 <tud_task_ext+0x218>
10002dec:	783b      	ldrb	r3, [r7, #0]
10002dee:	4648      	mov	r0, r9
10002df0:	f023 0308 	bic.w	r3, r3, #8
10002df4:	a908      	add	r1, sp, #32
10002df6:	703b      	strb	r3, [r7, #0]
10002df8:	f000 f9fa 	bl	100031f0 <tud_control_status>
10002dfc:	e5b5      	b.n	1000296a <tud_task_ext+0x1e>
10002dfe:	4648      	mov	r0, r9
10002e00:	783b      	ldrb	r3, [r7, #0]
10002e02:	089a      	lsrs	r2, r3, #2
10002e04:	f002 0202 	and.w	r2, r2, #2
10002e08:	f3c3 1340 	ubfx	r3, r3, #5, #1
10002e0c:	4313      	orrs	r3, r2
10002e0e:	f8ad 301a 	strh.w	r3, [sp, #26]
10002e12:	f10d 021a 	add.w	r2, sp, #26
10002e16:	2302      	movs	r3, #2
10002e18:	a908      	add	r1, sp, #32
10002e1a:	f000 fa03 	bl	10003224 <tud_control_xfer>
10002e1e:	e5a4      	b.n	1000296a <tud_task_ext+0x1e>
10002e20:	f8bd 3022 	ldrh.w	r3, [sp, #34]	@ 0x22
10002e24:	2b01      	cmp	r3, #1
10002e26:	f47f ae9d 	bne.w	10002b64 <tud_task_ext+0x218>
10002e2a:	783b      	ldrb	r3, [r7, #0]
10002e2c:	4648      	mov	r0, r9
10002e2e:	f043 0308 	orr.w	r3, r3, #8
10002e32:	a908      	add	r1, sp, #32
10002e34:	703b      	strb	r3, [r7, #0]
10002e36:	f000 f9db 	bl	100031f0 <tud_control_status>
10002e3a:	e596      	b.n	1000296a <tud_task_ext+0x1e>
10002e3c:	2a02      	cmp	r2, #2
10002e3e:	f43f ae84 	beq.w	10002b4a <tud_task_ext+0x1fe>
10002e42:	f7ff fcef 	bl	10002824 <tud_descriptor_other_speed_configuration_cb>
10002e46:	4602      	mov	r2, r0
10002e48:	2800      	cmp	r0, #0
10002e4a:	f43f ae8b 	beq.w	10002b64 <tud_task_ext+0x218>
10002e4e:	4648      	mov	r0, r9
10002e50:	8853      	ldrh	r3, [r2, #2]
10002e52:	a908      	add	r1, sp, #32
10002e54:	f000 f9e6 	bl	10003224 <tud_control_xfer>
10002e58:	2800      	cmp	r0, #0
10002e5a:	f47f ad86 	bne.w	1000296a <tud_task_ext+0x1e>
10002e5e:	e681      	b.n	10002b64 <tud_task_ext+0x218>
10002e60:	f89d 3024 	ldrb.w	r3, [sp, #36]	@ 0x24
10002e64:	2b0f      	cmp	r3, #15
10002e66:	f63f ae7d 	bhi.w	10002b64 <tud_task_ext+0x218>
10002e6a:	4a19      	ldr	r2, [pc, #100]	@ (10002ed0 <tud_task_ext+0x584>)
10002e6c:	443b      	add	r3, r7
10002e6e:	791b      	ldrb	r3, [r3, #4]
10002e70:	7812      	ldrb	r2, [r2, #0]
10002e72:	4293      	cmp	r3, r2
10002e74:	d227      	bcs.n	10002ec6 <tud_task_ext+0x57a>
10002e76:	4a18      	ldr	r2, [pc, #96]	@ (10002ed8 <tud_task_ext+0x58c>)
10002e78:	6817      	ldr	r7, [r2, #0]
10002e7a:	eb17 1743 	adds.w	r7, r7, r3, lsl #5
10002e7e:	f43f ae71 	beq.w	10002b64 <tud_task_ext+0x218>
10002e82:	6978      	ldr	r0, [r7, #20]
10002e84:	f000 fa30 	bl	100032e8 <usbd_control_set_complete_callback>
10002e88:	2101      	movs	r1, #1
10002e8a:	4648      	mov	r0, r9
10002e8c:	697b      	ldr	r3, [r7, #20]
10002e8e:	aa08      	add	r2, sp, #32
10002e90:	4798      	blx	r3
10002e92:	2800      	cmp	r0, #0
10002e94:	f47f ad69 	bne.w	1000296a <tud_task_ext+0x1e>
10002e98:	e664      	b.n	10002b64 <tud_task_ext+0x218>
10002e9a:	2a00      	cmp	r2, #0
10002e9c:	f47f ae62 	bne.w	10002b64 <tud_task_ext+0x218>
10002ea0:	9201      	str	r2, [sp, #4]
10002ea2:	f89d c021 	ldrb.w	ip, [sp, #33]	@ 0x21
10002ea6:	f00c 02fd 	and.w	r2, ip, #253	@ 0xfd
10002eaa:	2a01      	cmp	r2, #1
10002eac:	d016      	beq.n	10002edc <tud_task_ext+0x590>
10002eae:	f1bc 0f00 	cmp.w	ip, #0
10002eb2:	f47f ae50 	bne.w	10002b56 <tud_task_ext+0x20a>
10002eb6:	44b8      	add	r8, r7
10002eb8:	4443      	add	r3, r8
10002eba:	f893 3034 	ldrb.w	r3, [r3, #52]	@ 0x34
10002ebe:	4648      	mov	r0, r9
10002ec0:	f3c3 0340 	ubfx	r3, r3, #1, #1
10002ec4:	e7a3      	b.n	10002e0e <tud_task_ext+0x4c2>
10002ec6:	f47f ae4d 	bne.w	10002b64 <tud_task_ext+0x218>
10002eca:	4f02      	ldr	r7, [pc, #8]	@ (10002ed4 <tud_task_ext+0x588>)
10002ecc:	e7d9      	b.n	10002e82 <tud_task_ext+0x536>
10002ece:	bf00      	nop
10002ed0:	200019f0 	.word	0x200019f0
10002ed4:	10003fc4 	.word	0x10003fc4
10002ed8:	20001348 	.word	0x20001348
10002edc:	f8bd 2022 	ldrh.w	r2, [sp, #34]	@ 0x22
10002ee0:	b9ba      	cbnz	r2, 10002f12 <tud_task_ext+0x5c6>
10002ee2:	f1bc 0f01 	cmp.w	ip, #1
10002ee6:	f89a 0000 	ldrb.w	r0, [sl]
10002eea:	f000 8085 	beq.w	10002ff8 <tud_task_ext+0x6ac>
10002eee:	9302      	str	r3, [sp, #8]
10002ef0:	f7ff fbde 	bl	100026b0 <dcd_edpt_stall>
10002ef4:	9b02      	ldr	r3, [sp, #8]
10002ef6:	44b8      	add	r8, r7
10002ef8:	4443      	add	r3, r8
10002efa:	f893 2034 	ldrb.w	r2, [r3, #52]	@ 0x34
10002efe:	f042 0202 	orr.w	r2, r2, #2
10002f02:	f883 2034 	strb.w	r2, [r3, #52]	@ 0x34
10002f06:	f893 2034 	ldrb.w	r2, [r3, #52]	@ 0x34
10002f0a:	f042 0201 	orr.w	r2, r2, #1
10002f0e:	f883 2034 	strb.w	r2, [r3, #52]	@ 0x34
10002f12:	9b01      	ldr	r3, [sp, #4]
10002f14:	2b00      	cmp	r3, #0
10002f16:	f43f ad28 	beq.w	1000296a <tud_task_ext+0x1e>
10002f1a:	6958      	ldr	r0, [r3, #20]
10002f1c:	f000 f9e4 	bl	100032e8 <usbd_control_set_complete_callback>
10002f20:	9b01      	ldr	r3, [sp, #4]
10002f22:	2101      	movs	r1, #1
10002f24:	695b      	ldr	r3, [r3, #20]
10002f26:	aa08      	add	r2, sp, #32
10002f28:	4648      	mov	r0, r9
10002f2a:	4798      	blx	r3
10002f2c:	2000      	movs	r0, #0
10002f2e:	f000 f9db 	bl	100032e8 <usbd_control_set_complete_callback>
10002f32:	f897 3035 	ldrb.w	r3, [r7, #53]	@ 0x35
10002f36:	07db      	lsls	r3, r3, #31
10002f38:	f53f ad17 	bmi.w	1000296a <tud_task_ext+0x1e>
10002f3c:	e68a      	b.n	10002c54 <tud_task_ext+0x308>
10002f3e:	f7ff fc75 	bl	1000282c <tud_umount_cb>
10002f42:	4648      	mov	r0, r9
10002f44:	a908      	add	r1, sp, #32
10002f46:	f000 f953 	bl	100031f0 <tud_control_status>
10002f4a:	e50e      	b.n	1000296a <tud_task_ext+0x1e>
10002f4c:	f8dd c010 	ldr.w	ip, [sp, #16]
10002f50:	f1bc 0f00 	cmp.w	ip, #0
10002f54:	f000 8089 	beq.w	1000306a <tud_task_ext+0x71e>
10002f58:	7888      	ldrb	r0, [r1, #2]
10002f5a:	eb00 030c 	add.w	r3, r0, ip
10002f5e:	b2db      	uxtb	r3, r3
10002f60:	e003      	b.n	10002f6a <tud_task_ext+0x61e>
10002f62:	4298      	cmp	r0, r3
10002f64:	f88c 8004 	strb.w	r8, [ip, #4]
10002f68:	d07f      	beq.n	1000306a <tud_task_ext+0x71e>
10002f6a:	eb07 0c00 	add.w	ip, r7, r0
10002f6e:	f89c e004 	ldrb.w	lr, [ip, #4]
10002f72:	3001      	adds	r0, #1
10002f74:	f1be 0fff 	cmp.w	lr, #255	@ 0xff
10002f78:	b2c0      	uxtb	r0, r0
10002f7a:	d0f2      	beq.n	10002f62 <tud_task_ext+0x616>
10002f7c:	f04f 23e0 	mov.w	r3, #3758153728	@ 0xe000e000
10002f80:	f8d3 3df0 	ldr.w	r3, [r3, #3568]	@ 0xdf0
10002f84:	07d9      	lsls	r1, r3, #31
10002f86:	d500      	bpl.n	10002f8a <tud_task_ext+0x63e>
10002f88:	be00      	bkpt	0x0000
10002f8a:	f04f 23e0 	mov.w	r3, #3758153728	@ 0xe000e000
10002f8e:	f8d3 3df0 	ldr.w	r3, [r3, #3568]	@ 0xdf0
10002f92:	07da      	lsls	r2, r3, #31
10002f94:	d500      	bpl.n	10002f98 <tud_task_ext+0x64c>
10002f96:	be00      	bkpt	0x0000
10002f98:	2300      	movs	r3, #0
10002f9a:	707b      	strb	r3, [r7, #1]
10002f9c:	e5e2      	b.n	10002b64 <tud_task_ext+0x218>
10002f9e:	f7ff fc3d 	bl	1000281c <tud_descriptor_bos_cb>
10002fa2:	4602      	mov	r2, r0
10002fa4:	2800      	cmp	r0, #0
10002fa6:	f47f af52 	bne.w	10002e4e <tud_task_ext+0x502>
10002faa:	e5db      	b.n	10002b64 <tud_task_ext+0x218>
10002fac:	f7fd fa70 	bl	10000490 <tud_descriptor_device_cb>
10002fb0:	4602      	mov	r2, r0
10002fb2:	2800      	cmp	r0, #0
10002fb4:	f43f adcf 	beq.w	10002b56 <tud_task_ext+0x20a>
10002fb8:	4648      	mov	r0, r9
10002fba:	2312      	movs	r3, #18
10002fbc:	a908      	add	r1, sp, #32
10002fbe:	f000 f931 	bl	10003224 <tud_control_xfer>
10002fc2:	2800      	cmp	r0, #0
10002fc4:	f47f acd1 	bne.w	1000296a <tud_task_ext+0x1e>
10002fc8:	e5cc      	b.n	10002b64 <tud_task_ext+0x218>
10002fca:	f7ff fc29 	bl	10002820 <tud_descriptor_device_qualifier_cb>
10002fce:	4602      	mov	r2, r0
10002fd0:	2800      	cmp	r0, #0
10002fd2:	f43f adc7 	beq.w	10002b64 <tud_task_ext+0x218>
10002fd6:	4648      	mov	r0, r9
10002fd8:	7813      	ldrb	r3, [r2, #0]
10002fda:	a908      	add	r1, sp, #32
10002fdc:	f000 f922 	bl	10003224 <tud_control_xfer>
10002fe0:	2800      	cmp	r0, #0
10002fe2:	f47f acc2 	bne.w	1000296a <tud_task_ext+0x1e>
10002fe6:	e5bd      	b.n	10002b64 <tud_task_ext+0x218>
10002fe8:	f8bd 1024 	ldrh.w	r1, [sp, #36]	@ 0x24
10002fec:	f7fd fa5c 	bl	100004a8 <tud_descriptor_string_cb>
10002ff0:	4602      	mov	r2, r0
10002ff2:	2800      	cmp	r0, #0
10002ff4:	d1ef      	bne.n	10002fd6 <tud_task_ext+0x68a>
10002ff6:	e5b5      	b.n	10002b64 <tud_task_ext+0x218>
10002ff8:	e9cd 3202 	strd	r3, r2, [sp, #8]
10002ffc:	f7ff fb70 	bl	100026e0 <dcd_edpt_clear_stall>
10003000:	9b02      	ldr	r3, [sp, #8]
10003002:	44b8      	add	r8, r7
10003004:	4443      	add	r3, r8
10003006:	f893 1034 	ldrb.w	r1, [r3, #52]	@ 0x34
1000300a:	9a03      	ldr	r2, [sp, #12]
1000300c:	f362 0141 	bfi	r1, r2, #1, #1
10003010:	f883 1034 	strb.w	r1, [r3, #52]	@ 0x34
10003014:	f893 1034 	ldrb.w	r1, [r3, #52]	@ 0x34
10003018:	f362 0100 	bfi	r1, r2, #0, #1
1000301c:	f883 1034 	strb.w	r1, [r3, #52]	@ 0x34
10003020:	e777      	b.n	10002f12 <tud_task_ext+0x5c6>
10003022:	2100      	movs	r1, #0
10003024:	4648      	mov	r0, r9
10003026:	f7ff fa8f 	bl	10002548 <dcd_sof_enable>
1000302a:	4648      	mov	r0, r9
1000302c:	f7ff fb2a 	bl	10002684 <dcd_edpt_close_all>
10003030:	78bb      	ldrb	r3, [r7, #2]
10003032:	4648      	mov	r0, r9
10003034:	9301      	str	r3, [sp, #4]
10003036:	f7ff fba7 	bl	10002788 <configuration_reset>
1000303a:	9b01      	ldr	r3, [sp, #4]
1000303c:	70bb      	strb	r3, [r7, #2]
1000303e:	e62a      	b.n	10002c96 <tud_task_ext+0x34a>
10003040:	f8dd 900c 	ldr.w	r9, [sp, #12]
10003044:	f7ff fbf0 	bl	10002828 <tud_mount_cb>
10003048:	e77b      	b.n	10002f42 <tud_task_ext+0x5f6>
1000304a:	4648      	mov	r0, r9
1000304c:	2301      	movs	r3, #1
1000304e:	a908      	add	r1, sp, #32
10003050:	f10d 021a 	add.w	r2, sp, #26
10003054:	f88d 701a 	strb.w	r7, [sp, #26]
10003058:	f000 f8e4 	bl	10003224 <tud_control_xfer>
1000305c:	e485      	b.n	1000296a <tud_task_ext+0x1e>
1000305e:	780b      	ldrb	r3, [r1, #0]
10003060:	f891 c003 	ldrb.w	ip, [r1, #3]
10003064:	4419      	add	r1, r3
10003066:	784b      	ldrb	r3, [r1, #1]
10003068:	e645      	b.n	10002cf6 <tud_task_ext+0x3aa>
1000306a:	4643      	mov	r3, r8
1000306c:	480b      	ldr	r0, [pc, #44]	@ (1000309c <tud_task_ext+0x750>)
1000306e:	9204      	str	r2, [sp, #16]
10003070:	9102      	str	r1, [sp, #8]
10003072:	f000 fc53 	bl	1000391c <tu_edpt_bind_driver>
10003076:	4b0a      	ldr	r3, [pc, #40]	@ (100030a0 <tud_task_ext+0x754>)
10003078:	9902      	ldr	r1, [sp, #8]
1000307a:	781b      	ldrb	r3, [r3, #0]
1000307c:	9a04      	ldr	r2, [sp, #16]
1000307e:	4543      	cmp	r3, r8
10003080:	4411      	add	r1, r2
10003082:	f4bf ae2e 	bcs.w	10002ce2 <tud_task_ext+0x396>
10003086:	e779      	b.n	10002f7c <tud_task_ext+0x630>
10003088:	f04f 23e0 	mov.w	r3, #3758153728	@ 0xe000e000
1000308c:	f8d3 3df0 	ldr.w	r3, [r3, #3568]	@ 0xdf0
10003090:	07db      	lsls	r3, r3, #31
10003092:	f57f ac6a 	bpl.w	1000296a <tud_task_ext+0x1e>
10003096:	be00      	bkpt	0x0000
10003098:	e467      	b.n	1000296a <tud_task_ext+0x1e>
1000309a:	bf00      	nop
1000309c:	20001460 	.word	0x20001460
100030a0:	200019f0 	.word	0x200019f0

100030a4 <usbd_open_edpt_pair>:
100030a4:	e92d 4ff8 	stmdb	sp!, {r3, r4, r5, r6, r7, r8, r9, sl, fp, lr}
100030a8:	9f0a      	ldr	r7, [sp, #40]	@ 0x28
100030aa:	2a00      	cmp	r2, #0
100030ac:	d040      	beq.n	10003130 <usbd_open_edpt_pair+0x8c>
100030ae:	460c      	mov	r4, r1
100030b0:	461e      	mov	r6, r3
100030b2:	4615      	mov	r5, r2
100030b4:	f04f 0a00 	mov.w	sl, #0
100030b8:	f8df 907c 	ldr.w	r9, [pc, #124]	@ 10003138 <usbd_open_edpt_pair+0x94>
100030bc:	f8df 807c 	ldr.w	r8, [pc, #124]	@ 1000313c <usbd_open_edpt_pair+0x98>
100030c0:	e018      	b.n	100030f4 <usbd_open_edpt_pair+0x50>
100030c2:	4620      	mov	r0, r4
100030c4:	f898 1002 	ldrb.w	r1, [r8, #2]
100030c8:	f899 b000 	ldrb.w	fp, [r9]
100030cc:	f000 fbf6 	bl	100038bc <tu_edpt_validate>
100030d0:	b1e0      	cbz	r0, 1000310c <usbd_open_edpt_pair+0x68>
100030d2:	4621      	mov	r1, r4
100030d4:	4658      	mov	r0, fp
100030d6:	f7ff fa53 	bl	10002580 <dcd_edpt_open>
100030da:	b1f0      	cbz	r0, 1000311a <usbd_open_edpt_pair+0x76>
100030dc:	78a2      	ldrb	r2, [r4, #2]
100030de:	f10a 0a01 	add.w	sl, sl, #1
100030e2:	09d1      	lsrs	r1, r2, #7
100030e4:	bf16      	itet	ne
100030e6:	9b0b      	ldrne	r3, [sp, #44]	@ 0x2c
100030e8:	703a      	strbeq	r2, [r7, #0]
100030ea:	701a      	strbne	r2, [r3, #0]
100030ec:	7822      	ldrb	r2, [r4, #0]
100030ee:	45aa      	cmp	sl, r5
100030f0:	4414      	add	r4, r2
100030f2:	d01d      	beq.n	10003130 <usbd_open_edpt_pair+0x8c>
100030f4:	7862      	ldrb	r2, [r4, #1]
100030f6:	2a05      	cmp	r2, #5
100030f8:	d10f      	bne.n	1000311a <usbd_open_edpt_pair+0x76>
100030fa:	78e1      	ldrb	r1, [r4, #3]
100030fc:	f001 0103 	and.w	r1, r1, #3
10003100:	42b1      	cmp	r1, r6
10003102:	d10a      	bne.n	1000311a <usbd_open_edpt_pair+0x76>
10003104:	78a2      	ldrb	r2, [r4, #2]
10003106:	f012 0f70 	tst.w	r2, #112	@ 0x70
1000310a:	d0da      	beq.n	100030c2 <usbd_open_edpt_pair+0x1e>
1000310c:	f04f 23e0 	mov.w	r3, #3758153728	@ 0xe000e000
10003110:	f8d3 3df0 	ldr.w	r3, [r3, #3568]	@ 0xdf0
10003114:	07da      	lsls	r2, r3, #31
10003116:	d500      	bpl.n	1000311a <usbd_open_edpt_pair+0x76>
10003118:	be00      	bkpt	0x0000
1000311a:	f04f 23e0 	mov.w	r3, #3758153728	@ 0xe000e000
1000311e:	f8d3 3df0 	ldr.w	r3, [r3, #3568]	@ 0xdf0
10003122:	07db      	lsls	r3, r3, #31
10003124:	d402      	bmi.n	1000312c <usbd_open_edpt_pair+0x88>
10003126:	2000      	movs	r0, #0
10003128:	e8bd 8ff8 	ldmia.w	sp!, {r3, r4, r5, r6, r7, r8, r9, sl, fp, pc}
1000312c:	be00      	bkpt	0x0000
1000312e:	e7fa      	b.n	10003126 <usbd_open_edpt_pair+0x82>
10003130:	2001      	movs	r0, #1
10003132:	e8bd 8ff8 	ldmia.w	sp!, {r3, r4, r5, r6, r7, r8, r9, sl, fp, pc}
10003136:	bf00      	nop
10003138:	200011b8 	.word	0x200011b8
1000313c:	2000144c 	.word	0x2000144c

10003140 <usbd_edpt_claim>:
10003140:	460b      	mov	r3, r1
10003142:	4a06      	ldr	r2, [pc, #24]	@ (1000315c <usbd_edpt_claim+0x1c>)
10003144:	4806      	ldr	r0, [pc, #24]	@ (10003160 <usbd_edpt_claim+0x20>)
10003146:	6811      	ldr	r1, [r2, #0]
10003148:	09da      	lsrs	r2, r3, #7
1000314a:	3234      	adds	r2, #52	@ 0x34
1000314c:	f003 037f 	and.w	r3, r3, #127	@ 0x7f
10003150:	eb02 0343 	add.w	r3, r2, r3, lsl #1
10003154:	4418      	add	r0, r3
10003156:	f000 bb87 	b.w	10003868 <tu_edpt_claim>
1000315a:	bf00      	nop
1000315c:	200014a0 	.word	0x200014a0
10003160:	2000144c 	.word	0x2000144c

10003164 <usbd_edpt_xfer>:
10003164:	b510      	push	{r4, lr}
10003166:	4819      	ldr	r0, [pc, #100]	@ (100031cc <usbd_edpt_xfer+0x68>)
10003168:	f001 0c7f 	and.w	ip, r1, #127	@ 0x7f
1000316c:	eb00 004c 	add.w	r0, r0, ip, lsl #1
10003170:	eb00 10d1 	add.w	r0, r0, r1, lsr #7
10003174:	f890 c034 	ldrb.w	ip, [r0, #52]	@ 0x34
10003178:	f01c 0f01 	tst.w	ip, #1
1000317c:	d008      	beq.n	10003190 <usbd_edpt_xfer+0x2c>
1000317e:	f04f 23e0 	mov.w	r3, #3758153728	@ 0xe000e000
10003182:	f8d3 3df0 	ldr.w	r3, [r3, #3568]	@ 0xdf0
10003186:	07da      	lsls	r2, r3, #31
10003188:	d500      	bpl.n	1000318c <usbd_edpt_xfer+0x28>
1000318a:	be00      	bkpt	0x0000
1000318c:	2000      	movs	r0, #0
1000318e:	bd10      	pop	{r4, pc}
10003190:	f100 0430 	add.w	r4, r0, #48	@ 0x30
10003194:	f894 c004 	ldrb.w	ip, [r4, #4]
10003198:	480d      	ldr	r0, [pc, #52]	@ (100031d0 <usbd_edpt_xfer+0x6c>)
1000319a:	f04c 0c01 	orr.w	ip, ip, #1
1000319e:	7800      	ldrb	r0, [r0, #0]
100031a0:	f884 c004 	strb.w	ip, [r4, #4]
100031a4:	f7ff fa70 	bl	10002688 <dcd_edpt_xfer>
100031a8:	2800      	cmp	r0, #0
100031aa:	d1f0      	bne.n	1000318e <usbd_edpt_xfer+0x2a>
100031ac:	f04f 21e0 	mov.w	r1, #3758153728	@ 0xe000e000
100031b0:	7922      	ldrb	r2, [r4, #4]
100031b2:	f360 0200 	bfi	r2, r0, #0, #1
100031b6:	7122      	strb	r2, [r4, #4]
100031b8:	7922      	ldrb	r2, [r4, #4]
100031ba:	f360 0282 	bfi	r2, r0, #2, #1
100031be:	7122      	strb	r2, [r4, #4]
100031c0:	f8d1 3df0 	ldr.w	r3, [r1, #3568]	@ 0xdf0
100031c4:	07db      	lsls	r3, r3, #31
100031c6:	d5e1      	bpl.n	1000318c <usbd_edpt_xfer+0x28>
100031c8:	be00      	bkpt	0x0000
100031ca:	e7df      	b.n	1000318c <usbd_edpt_xfer+0x28>
100031cc:	2000144c 	.word	0x2000144c
100031d0:	200011b8 	.word	0x200011b8

100031d4 <usbd_edpt_busy>:
100031d4:	4b05      	ldr	r3, [pc, #20]	@ (100031ec <usbd_edpt_busy+0x18>)
100031d6:	f001 027f 	and.w	r2, r1, #127	@ 0x7f
100031da:	eb03 0342 	add.w	r3, r3, r2, lsl #1
100031de:	eb03 11d1 	add.w	r1, r3, r1, lsr #7
100031e2:	f891 0034 	ldrb.w	r0, [r1, #52]	@ 0x34
100031e6:	f000 0001 	and.w	r0, r0, #1
100031ea:	4770      	bx	lr
100031ec:	2000144c 	.word	0x2000144c

100031f0 <tud_control_status>:
100031f0:	b530      	push	{r4, r5, lr}
100031f2:	4c0b      	ldr	r4, [pc, #44]	@ (10003220 <tud_control_status+0x30>)
100031f4:	468c      	mov	ip, r1
100031f6:	46a6      	mov	lr, r4
100031f8:	4605      	mov	r5, r0
100031fa:	6808      	ldr	r0, [r1, #0]
100031fc:	6849      	ldr	r1, [r1, #4]
100031fe:	2300      	movs	r3, #0
10003200:	e8ae 0003 	stmia.w	lr!, {r0, r1}
10003204:	f89c 1000 	ldrb.w	r1, [ip]
10003208:	4628      	mov	r0, r5
1000320a:	43c9      	mvns	r1, r1
1000320c:	e9c4 3302 	strd	r3, r3, [r4, #8]
10003210:	e8bd 4030 	ldmia.w	sp!, {r4, r5, lr}
10003214:	461a      	mov	r2, r3
10003216:	f001 0180 	and.w	r1, r1, #128	@ 0x80
1000321a:	f7ff bfa3 	b.w	10003164 <usbd_edpt_xfer>
1000321e:	bf00      	nop
10003220:	2000138c 	.word	0x2000138c

10003224 <tud_control_xfer>:
10003224:	e92d 41f0 	stmdb	sp!, {r4, r5, r6, r7, r8, lr}
10003228:	4f28      	ldr	r7, [pc, #160]	@ (100032cc <tud_control_xfer+0xa8>)
1000322a:	f04f 0800 	mov.w	r8, #0
1000322e:	46be      	mov	lr, r7
10003230:	468c      	mov	ip, r1
10003232:	4606      	mov	r6, r0
10003234:	6808      	ldr	r0, [r1, #0]
10003236:	6849      	ldr	r1, [r1, #4]
10003238:	60ba      	str	r2, [r7, #8]
1000323a:	e8ae 0003 	stmia.w	lr!, {r0, r1}
1000323e:	f8a7 800e 	strh.w	r8, [r7, #14]
10003242:	4615      	mov	r5, r2
10003244:	f8bc 2006 	ldrh.w	r2, [ip, #6]
10003248:	4293      	cmp	r3, r2
1000324a:	bf28      	it	cs
1000324c:	4613      	movcs	r3, r2
1000324e:	81bb      	strh	r3, [r7, #12]
10003250:	b19a      	cbz	r2, 1000327a <tud_control_xfer+0x56>
10003252:	461c      	mov	r4, r3
10003254:	b333      	cbz	r3, 100032a4 <tud_control_xfer+0x80>
10003256:	b1dd      	cbz	r5, 10003290 <tud_control_xfer+0x6c>
10003258:	f997 3000 	ldrsb.w	r3, [r7]
1000325c:	2c40      	cmp	r4, #64	@ 0x40
1000325e:	bf28      	it	cs
10003260:	2440      	movcs	r4, #64	@ 0x40
10003262:	2b00      	cmp	r3, #0
10003264:	db29      	blt.n	100032ba <tud_control_xfer+0x96>
10003266:	4641      	mov	r1, r8
10003268:	4623      	mov	r3, r4
1000326a:	4630      	mov	r0, r6
1000326c:	4a18      	ldr	r2, [pc, #96]	@ (100032d0 <tud_control_xfer+0xac>)
1000326e:	f7ff ff79 	bl	10003164 <usbd_edpt_xfer>
10003272:	b168      	cbz	r0, 10003290 <tud_control_xfer+0x6c>
10003274:	2001      	movs	r0, #1
10003276:	e8bd 81f0 	ldmia.w	sp!, {r4, r5, r6, r7, r8, pc}
1000327a:	f89c 1000 	ldrb.w	r1, [ip]
1000327e:	4613      	mov	r3, r2
10003280:	43c9      	mvns	r1, r1
10003282:	4630      	mov	r0, r6
10003284:	f001 0180 	and.w	r1, r1, #128	@ 0x80
10003288:	f7ff ff6c 	bl	10003164 <usbd_edpt_xfer>
1000328c:	2800      	cmp	r0, #0
1000328e:	d1f1      	bne.n	10003274 <tud_control_xfer+0x50>
10003290:	f04f 23e0 	mov.w	r3, #3758153728	@ 0xe000e000
10003294:	f8d3 3df0 	ldr.w	r3, [r3, #3568]	@ 0xdf0
10003298:	07db      	lsls	r3, r3, #31
1000329a:	d500      	bpl.n	1000329e <tud_control_xfer+0x7a>
1000329c:	be00      	bkpt	0x0000
1000329e:	2000      	movs	r0, #0
100032a0:	e8bd 81f0 	ldmia.w	sp!, {r4, r5, r6, r7, r8, pc}
100032a4:	461a      	mov	r2, r3
100032a6:	7839      	ldrb	r1, [r7, #0]
100032a8:	f001 0180 	and.w	r1, r1, #128	@ 0x80
100032ac:	4623      	mov	r3, r4
100032ae:	4630      	mov	r0, r6
100032b0:	f7ff ff58 	bl	10003164 <usbd_edpt_xfer>
100032b4:	2800      	cmp	r0, #0
100032b6:	d1dd      	bne.n	10003274 <tud_control_xfer+0x50>
100032b8:	e7ea      	b.n	10003290 <tud_control_xfer+0x6c>
100032ba:	4622      	mov	r2, r4
100032bc:	4629      	mov	r1, r5
100032be:	4804      	ldr	r0, [pc, #16]	@ (100032d0 <tud_control_xfer+0xac>)
100032c0:	f000 fc90 	bl	10003be4 <memcpy>
100032c4:	2180      	movs	r1, #128	@ 0x80
100032c6:	4a02      	ldr	r2, [pc, #8]	@ (100032d0 <tud_control_xfer+0xac>)
100032c8:	e7f0      	b.n	100032ac <tud_control_xfer+0x88>
100032ca:	bf00      	nop
100032cc:	2000138c 	.word	0x2000138c
100032d0:	2000134c 	.word	0x2000134c

100032d4 <usbd_control_reset>:
100032d4:	2200      	movs	r2, #0
100032d6:	4b03      	ldr	r3, [pc, #12]	@ (100032e4 <usbd_control_reset+0x10>)
100032d8:	e9c3 2200 	strd	r2, r2, [r3]
100032dc:	e9c3 2202 	strd	r2, r2, [r3, #8]
100032e0:	611a      	str	r2, [r3, #16]
100032e2:	4770      	bx	lr
100032e4:	2000138c 	.word	0x2000138c

100032e8 <usbd_control_set_complete_callback>:
100032e8:	4b01      	ldr	r3, [pc, #4]	@ (100032f0 <usbd_control_set_complete_callback+0x8>)
100032ea:	6118      	str	r0, [r3, #16]
100032ec:	4770      	bx	lr
100032ee:	bf00      	nop
100032f0:	2000138c 	.word	0x2000138c

100032f4 <usbd_control_set_request>:
100032f4:	b430      	push	{r4, r5}
100032f6:	4602      	mov	r2, r0
100032f8:	4c04      	ldr	r4, [pc, #16]	@ (1000330c <usbd_control_set_request+0x18>)
100032fa:	2500      	movs	r5, #0
100032fc:	4623      	mov	r3, r4
100032fe:	6800      	ldr	r0, [r0, #0]
10003300:	6851      	ldr	r1, [r2, #4]
10003302:	e9c4 5502 	strd	r5, r5, [r4, #8]
10003306:	bc30      	pop	{r4, r5}
10003308:	c303      	stmia	r3!, {r0, r1}
1000330a:	4770      	bx	lr
1000330c:	2000138c 	.word	0x2000138c

10003310 <usbd_control_xfer_cb>:
10003310:	b570      	push	{r4, r5, r6, lr}
10003312:	4c3d      	ldr	r4, [pc, #244]	@ (10003408 <usbd_control_xfer_cb+0xf8>)
10003314:	09c9      	lsrs	r1, r1, #7
10003316:	7822      	ldrb	r2, [r4, #0]
10003318:	4606      	mov	r6, r0
1000331a:	ebb1 1fd2 	cmp.w	r1, r2, lsr #7
1000331e:	461d      	mov	r5, r3
10003320:	b082      	sub	sp, #8
10003322:	d017      	beq.n	10003354 <usbd_control_xfer_cb+0x44>
10003324:	b153      	cbz	r3, 1000333c <usbd_control_xfer_cb+0x2c>
10003326:	f04f 23e0 	mov.w	r3, #3758153728	@ 0xe000e000
1000332a:	f8d3 3df0 	ldr.w	r3, [r3, #3568]	@ 0xdf0
1000332e:	07db      	lsls	r3, r3, #31
10003330:	d402      	bmi.n	10003338 <usbd_control_xfer_cb+0x28>
10003332:	2000      	movs	r0, #0
10003334:	b002      	add	sp, #8
10003336:	bd70      	pop	{r4, r5, r6, pc}
10003338:	be00      	bkpt	0x0000
1000333a:	e7fa      	b.n	10003332 <usbd_control_xfer_cb+0x22>
1000333c:	4621      	mov	r1, r4
1000333e:	f7ff f911 	bl	10002564 <dcd_edpt0_status_complete>
10003342:	6923      	ldr	r3, [r4, #16]
10003344:	b11b      	cbz	r3, 1000334e <usbd_control_xfer_cb+0x3e>
10003346:	4622      	mov	r2, r4
10003348:	2103      	movs	r1, #3
1000334a:	4630      	mov	r0, r6
1000334c:	4798      	blx	r3
1000334e:	2001      	movs	r0, #1
10003350:	b002      	add	sp, #8
10003352:	bd70      	pop	{r4, r5, r6, pc}
10003354:	f994 3000 	ldrsb.w	r3, [r4]
10003358:	2b00      	cmp	r3, #0
1000335a:	db06      	blt.n	1000336a <usbd_control_xfer_cb+0x5a>
1000335c:	68a0      	ldr	r0, [r4, #8]
1000335e:	2800      	cmp	r0, #0
10003360:	d0e7      	beq.n	10003332 <usbd_control_xfer_cb+0x22>
10003362:	462a      	mov	r2, r5
10003364:	4929      	ldr	r1, [pc, #164]	@ (1000340c <usbd_control_xfer_cb+0xfc>)
10003366:	f000 fc3d 	bl	10003be4 <memcpy>
1000336a:	89e0      	ldrh	r0, [r4, #14]
1000336c:	68a1      	ldr	r1, [r4, #8]
1000336e:	88e3      	ldrh	r3, [r4, #6]
10003370:	4428      	add	r0, r5
10003372:	b280      	uxth	r0, r0
10003374:	4429      	add	r1, r5
10003376:	4283      	cmp	r3, r0
10003378:	81e0      	strh	r0, [r4, #14]
1000337a:	60a1      	str	r1, [r4, #8]
1000337c:	d016      	beq.n	100033ac <usbd_control_xfer_cb+0x9c>
1000337e:	2d3f      	cmp	r5, #63	@ 0x3f
10003380:	d914      	bls.n	100033ac <usbd_control_xfer_cb+0x9c>
10003382:	89a2      	ldrh	r2, [r4, #12]
10003384:	f994 4000 	ldrsb.w	r4, [r4]
10003388:	1a13      	subs	r3, r2, r0
1000338a:	b29b      	uxth	r3, r3
1000338c:	2b40      	cmp	r3, #64	@ 0x40
1000338e:	bf28      	it	cs
10003390:	2340      	movcs	r3, #64	@ 0x40
10003392:	2c00      	cmp	r4, #0
10003394:	db27      	blt.n	100033e6 <usbd_control_xfer_cb+0xd6>
10003396:	4290      	cmp	r0, r2
10003398:	f04f 0100 	mov.w	r1, #0
1000339c:	d031      	beq.n	10003402 <usbd_control_xfer_cb+0xf2>
1000339e:	4a1b      	ldr	r2, [pc, #108]	@ (1000340c <usbd_control_xfer_cb+0xfc>)
100033a0:	4630      	mov	r0, r6
100033a2:	f7ff fedf 	bl	10003164 <usbd_edpt_xfer>
100033a6:	2800      	cmp	r0, #0
100033a8:	d1d1      	bne.n	1000334e <usbd_control_xfer_cb+0x3e>
100033aa:	e7bc      	b.n	10003326 <usbd_control_xfer_cb+0x16>
100033ac:	6923      	ldr	r3, [r4, #16]
100033ae:	b123      	cbz	r3, 100033ba <usbd_control_xfer_cb+0xaa>
100033b0:	2102      	movs	r1, #2
100033b2:	4630      	mov	r0, r6
100033b4:	4a14      	ldr	r2, [pc, #80]	@ (10003408 <usbd_control_xfer_cb+0xf8>)
100033b6:	4798      	blx	r3
100033b8:	b160      	cbz	r0, 100033d4 <usbd_control_xfer_cb+0xc4>
100033ba:	7821      	ldrb	r1, [r4, #0]
100033bc:	2300      	movs	r3, #0
100033be:	43c9      	mvns	r1, r1
100033c0:	4630      	mov	r0, r6
100033c2:	461a      	mov	r2, r3
100033c4:	f001 0180 	and.w	r1, r1, #128	@ 0x80
100033c8:	f7ff fecc 	bl	10003164 <usbd_edpt_xfer>
100033cc:	2800      	cmp	r0, #0
100033ce:	d0aa      	beq.n	10003326 <usbd_control_xfer_cb+0x16>
100033d0:	2001      	movs	r0, #1
100033d2:	e7bd      	b.n	10003350 <usbd_control_xfer_cb+0x40>
100033d4:	4601      	mov	r1, r0
100033d6:	4630      	mov	r0, r6
100033d8:	f7ff f96a 	bl	100026b0 <dcd_edpt_stall>
100033dc:	2180      	movs	r1, #128	@ 0x80
100033de:	4630      	mov	r0, r6
100033e0:	f7ff f966 	bl	100026b0 <dcd_edpt_stall>
100033e4:	e7b3      	b.n	1000334e <usbd_control_xfer_cb+0x3e>
100033e6:	4290      	cmp	r0, r2
100033e8:	d008      	beq.n	100033fc <usbd_control_xfer_cb+0xec>
100033ea:	461a      	mov	r2, r3
100033ec:	4807      	ldr	r0, [pc, #28]	@ (1000340c <usbd_control_xfer_cb+0xfc>)
100033ee:	9301      	str	r3, [sp, #4]
100033f0:	f000 fbf8 	bl	10003be4 <memcpy>
100033f4:	2180      	movs	r1, #128	@ 0x80
100033f6:	4a05      	ldr	r2, [pc, #20]	@ (1000340c <usbd_control_xfer_cb+0xfc>)
100033f8:	9b01      	ldr	r3, [sp, #4]
100033fa:	e7d1      	b.n	100033a0 <usbd_control_xfer_cb+0x90>
100033fc:	2180      	movs	r1, #128	@ 0x80
100033fe:	2200      	movs	r2, #0
10003400:	e7ce      	b.n	100033a0 <usbd_control_xfer_cb+0x90>
10003402:	460a      	mov	r2, r1
10003404:	e7cc      	b.n	100033a0 <usbd_control_xfer_cb+0x90>
10003406:	bf00      	nop
10003408:	2000138c 	.word	0x2000138c
1000340c:	2000134c 	.word	0x2000134c

10003410 <tud_hid_set_protocol_cb>:
10003410:	4770      	bx	lr
10003412:	bf00      	nop

10003414 <tud_hid_set_idle_cb>:
10003414:	2001      	movs	r0, #1
10003416:	4770      	bx	lr

10003418 <tud_hid_report_complete_cb>:
10003418:	4770      	bx	lr
1000341a:	bf00      	nop

1000341c <tud_hid_report_failed_cb>:
1000341c:	4770      	bx	lr
1000341e:	bf00      	nop

10003420 <tud_hid_n_ready>:
10003420:	b510      	push	{r4, lr}
10003422:	4b0c      	ldr	r3, [pc, #48]	@ (10003454 <tud_hid_n_ready+0x34>)
10003424:	eb00 0040 	add.w	r0, r0, r0, lsl #1
10003428:	eb03 0380 	add.w	r3, r3, r0, lsl #2
1000342c:	785c      	ldrb	r4, [r3, #1]
1000342e:	f7ff fa03 	bl	10002838 <tud_mounted>
10003432:	b908      	cbnz	r0, 10003438 <tud_hid_n_ready+0x18>
10003434:	2000      	movs	r0, #0
10003436:	bd10      	pop	{r4, pc}
10003438:	f7ff fa06 	bl	10002848 <tud_suspended>
1000343c:	2800      	cmp	r0, #0
1000343e:	d1f9      	bne.n	10003434 <tud_hid_n_ready+0x14>
10003440:	2c00      	cmp	r4, #0
10003442:	d0f7      	beq.n	10003434 <tud_hid_n_ready+0x14>
10003444:	4621      	mov	r1, r4
10003446:	f7ff fec5 	bl	100031d4 <usbd_edpt_busy>
1000344a:	f080 0001 	eor.w	r0, r0, #1
1000344e:	b2c0      	uxtb	r0, r0
10003450:	bd10      	pop	{r4, pc}
10003452:	bf00      	nop
10003454:	20001414 	.word	0x20001414

10003458 <tud_hid_n_mouse_report>:
10003458:	e92d 4ff0 	stmdb	sp!, {r4, r5, r6, r7, r8, r9, sl, fp, lr}
1000345c:	b081      	sub	sp, #4
1000345e:	f99d 9028 	ldrsb.w	r9, [sp, #40]	@ 0x28
10003462:	f99d 802c 	ldrsb.w	r8, [sp, #44]	@ 0x2c
10003466:	f99d 7030 	ldrsb.w	r7, [sp, #48]	@ 0x30
1000346a:	b118      	cbz	r0, 10003474 <tud_hid_n_mouse_report+0x1c>
1000346c:	2000      	movs	r0, #0
1000346e:	b001      	add	sp, #4
10003470:	e8bd 8ff0 	ldmia.w	sp!, {r4, r5, r6, r7, r8, r9, sl, fp, pc}
10003474:	f8df a058 	ldr.w	sl, [pc, #88]	@ 100034d0 <tud_hid_n_mouse_report+0x78>
10003478:	460d      	mov	r5, r1
1000347a:	f89a 1001 	ldrb.w	r1, [sl, #1]
1000347e:	4616      	mov	r6, r2
10003480:	469b      	mov	fp, r3
10003482:	4604      	mov	r4, r0
10003484:	f7ff fe5c 	bl	10003140 <usbd_edpt_claim>
10003488:	2800      	cmp	r0, #0
1000348a:	d0ef      	beq.n	1000346c <tud_hid_n_mouse_report+0x14>
1000348c:	f36b 0407 	bfi	r4, fp, #0, #8
10003490:	f369 240f 	bfi	r4, r9, #8, #8
10003494:	f368 4417 	bfi	r4, r8, #16, #8
10003498:	f367 641f 	bfi	r4, r7, #24, #8
1000349c:	b96d      	cbnz	r5, 100034ba <tud_hid_n_mouse_report+0x62>
1000349e:	2305      	movs	r3, #5
100034a0:	4a09      	ldr	r2, [pc, #36]	@ (100034c8 <tud_hid_n_mouse_report+0x70>)
100034a2:	7416      	strb	r6, [r2, #16]
100034a4:	f8c2 4011 	str.w	r4, [r2, #17]
100034a8:	2000      	movs	r0, #0
100034aa:	4a08      	ldr	r2, [pc, #32]	@ (100034cc <tud_hid_n_mouse_report+0x74>)
100034ac:	f89a 1001 	ldrb.w	r1, [sl, #1]
100034b0:	b001      	add	sp, #4
100034b2:	e8bd 4ff0 	ldmia.w	sp!, {r4, r5, r6, r7, r8, r9, sl, fp, lr}
100034b6:	f7ff be55 	b.w	10003164 <usbd_edpt_xfer>
100034ba:	4a03      	ldr	r2, [pc, #12]	@ (100034c8 <tud_hid_n_mouse_report+0x70>)
100034bc:	2306      	movs	r3, #6
100034be:	7415      	strb	r5, [r2, #16]
100034c0:	7456      	strb	r6, [r2, #17]
100034c2:	f8c2 4012 	str.w	r4, [r2, #18]
100034c6:	e7ef      	b.n	100034a8 <tud_hid_n_mouse_report+0x50>
100034c8:	200013e4 	.word	0x200013e4
100034cc:	200013f4 	.word	0x200013f4
100034d0:	20001414 	.word	0x20001414

100034d4 <hidd_init>:
100034d4:	2200      	movs	r2, #0
100034d6:	4b02      	ldr	r3, [pc, #8]	@ (100034e0 <hidd_init+0xc>)
100034d8:	e9c3 2200 	strd	r2, r2, [r3]
100034dc:	609a      	str	r2, [r3, #8]
100034de:	4770      	bx	lr
100034e0:	20001414 	.word	0x20001414

100034e4 <hidd_deinit>:
100034e4:	2001      	movs	r0, #1
100034e6:	4770      	bx	lr

100034e8 <hidd_reset>:
100034e8:	2200      	movs	r2, #0
100034ea:	4b02      	ldr	r3, [pc, #8]	@ (100034f4 <hidd_reset+0xc>)
100034ec:	e9c3 2200 	strd	r2, r2, [r3]
100034f0:	609a      	str	r2, [r3, #8]
100034f2:	4770      	bx	lr
100034f4:	20001414 	.word	0x20001414

100034f8 <hidd_open>:
100034f8:	b5f0      	push	{r4, r5, r6, r7, lr}
100034fa:	794b      	ldrb	r3, [r1, #5]
100034fc:	b083      	sub	sp, #12
100034fe:	2b03      	cmp	r3, #3
10003500:	d111      	bne.n	10003526 <hidd_open+0x2e>
10003502:	f891 c004 	ldrb.w	ip, [r1, #4]
10003506:	460c      	mov	r4, r1
10003508:	ebcc 05cc 	rsb	r5, ip, ip, lsl #3
1000350c:	3512      	adds	r5, #18
1000350e:	b2ad      	uxth	r5, r5
10003510:	4295      	cmp	r5, r2
10003512:	d802      	bhi.n	1000351a <hidd_open+0x22>
10003514:	4f23      	ldr	r7, [pc, #140]	@ (100035a4 <hidd_open+0xac>)
10003516:	787a      	ldrb	r2, [r7, #1]
10003518:	b15a      	cbz	r2, 10003532 <hidd_open+0x3a>
1000351a:	f04f 23e0 	mov.w	r3, #3758153728	@ 0xe000e000
1000351e:	f8d3 3df0 	ldr.w	r3, [r3, #3568]	@ 0xdf0
10003522:	07da      	lsls	r2, r3, #31
10003524:	d403      	bmi.n	1000352e <hidd_open+0x36>
10003526:	2500      	movs	r5, #0
10003528:	4628      	mov	r0, r5
1000352a:	b003      	add	sp, #12
1000352c:	bdf0      	pop	{r4, r5, r6, r7, pc}
1000352e:	be00      	bkpt	0x0000
10003530:	e7f9      	b.n	10003526 <hidd_open+0x2e>
10003532:	7809      	ldrb	r1, [r1, #0]
10003534:	1862      	adds	r2, r4, r1
10003536:	f892 e001 	ldrb.w	lr, [r2, #1]
1000353a:	f1be 0f21 	cmp.w	lr, #33	@ 0x21
1000353e:	d1ec      	bne.n	1000351a <hidd_open+0x22>
10003540:	60ba      	str	r2, [r7, #8]
10003542:	5c61      	ldrb	r1, [r4, r1]
10003544:	4606      	mov	r6, r0
10003546:	4411      	add	r1, r2
10003548:	4662      	mov	r2, ip
1000354a:	f107 0c01 	add.w	ip, r7, #1
1000354e:	f8cd c004 	str.w	ip, [sp, #4]
10003552:	f107 0c02 	add.w	ip, r7, #2
10003556:	f8cd c000 	str.w	ip, [sp]
1000355a:	f7ff fda3 	bl	100030a4 <usbd_open_edpt_pair>
1000355e:	2800      	cmp	r0, #0
10003560:	d0db      	beq.n	1000351a <hidd_open+0x22>
10003562:	79a3      	ldrb	r3, [r4, #6]
10003564:	68ba      	ldr	r2, [r7, #8]
10003566:	2b01      	cmp	r3, #1
10003568:	bf08      	it	eq
1000356a:	79e3      	ldrbeq	r3, [r4, #7]
1000356c:	f8b2 2007 	ldrh.w	r2, [r2, #7]
10003570:	bf08      	it	eq
10003572:	70fb      	strbeq	r3, [r7, #3]
10003574:	2301      	movs	r3, #1
10003576:	71bb      	strb	r3, [r7, #6]
10003578:	78a3      	ldrb	r3, [r4, #2]
1000357a:	78b9      	ldrb	r1, [r7, #2]
1000357c:	80ba      	strh	r2, [r7, #4]
1000357e:	703b      	strb	r3, [r7, #0]
10003580:	2900      	cmp	r1, #0
10003582:	d0d1      	beq.n	10003528 <hidd_open+0x30>
10003584:	2310      	movs	r3, #16
10003586:	4630      	mov	r0, r6
10003588:	4a07      	ldr	r2, [pc, #28]	@ (100035a8 <hidd_open+0xb0>)
1000358a:	f7ff fdeb 	bl	10003164 <usbd_edpt_xfer>
1000358e:	2800      	cmp	r0, #0
10003590:	d1ca      	bne.n	10003528 <hidd_open+0x30>
10003592:	f04f 23e0 	mov.w	r3, #3758153728	@ 0xe000e000
10003596:	f8d3 3df0 	ldr.w	r3, [r3, #3568]	@ 0xdf0
1000359a:	07db      	lsls	r3, r3, #31
1000359c:	d5c4      	bpl.n	10003528 <hidd_open+0x30>
1000359e:	be00      	bkpt	0x0000
100035a0:	e7c2      	b.n	10003528 <hidd_open+0x30>
100035a2:	bf00      	nop
100035a4:	20001414 	.word	0x20001414
100035a8:	20001404 	.word	0x20001404

100035ac <hidd_control_xfer_cb>:
100035ac:	b570      	push	{r4, r5, r6, lr}
100035ae:	4614      	mov	r4, r2
100035b0:	7812      	ldrb	r2, [r2, #0]
100035b2:	b082      	sub	sp, #8
100035b4:	f002 0c1f 	and.w	ip, r2, #31
100035b8:	f1bc 0f01 	cmp.w	ip, #1
100035bc:	d113      	bne.n	100035e6 <hidd_control_xfer_cb+0x3a>
100035be:	4e68      	ldr	r6, [pc, #416]	@ (10003760 <hidd_control_xfer_cb+0x1b4>)
100035c0:	f8b4 c004 	ldrh.w	ip, [r4, #4]
100035c4:	7833      	ldrb	r3, [r6, #0]
100035c6:	fa5f fc8c 	uxtb.w	ip, ip
100035ca:	4563      	cmp	r3, ip
100035cc:	d10b      	bne.n	100035e6 <hidd_control_xfer_cb+0x3a>
100035ce:	f012 0260 	ands.w	r2, r2, #96	@ 0x60
100035d2:	4605      	mov	r5, r0
100035d4:	d10a      	bne.n	100035ec <hidd_control_xfer_cb+0x40>
100035d6:	2901      	cmp	r1, #1
100035d8:	d002      	beq.n	100035e0 <hidd_control_xfer_cb+0x34>
100035da:	2001      	movs	r0, #1
100035dc:	b002      	add	sp, #8
100035de:	bd70      	pop	{r4, r5, r6, pc}
100035e0:	7863      	ldrb	r3, [r4, #1]
100035e2:	2b06      	cmp	r3, #6
100035e4:	d022      	beq.n	1000362c <hidd_control_xfer_cb+0x80>
100035e6:	2000      	movs	r0, #0
100035e8:	b002      	add	sp, #8
100035ea:	bd70      	pop	{r4, r5, r6, pc}
100035ec:	2a20      	cmp	r2, #32
100035ee:	d1fa      	bne.n	100035e6 <hidd_control_xfer_cb+0x3a>
100035f0:	7863      	ldrb	r3, [r4, #1]
100035f2:	3b01      	subs	r3, #1
100035f4:	2b0a      	cmp	r3, #10
100035f6:	d8f6      	bhi.n	100035e6 <hidd_control_xfer_cb+0x3a>
100035f8:	a201      	add	r2, pc, #4	@ (adr r2, 10003600 <hidd_control_xfer_cb+0x54>)
100035fa:	f852 f023 	ldr.w	pc, [r2, r3, lsl #2]
100035fe:	bf00      	nop
10003600:	100036db 	.word	0x100036db
10003604:	100036cb 	.word	0x100036cb
10003608:	100036bb 	.word	0x100036bb
1000360c:	100035e7 	.word	0x100035e7
10003610:	100035e7 	.word	0x100035e7
10003614:	100035e7 	.word	0x100035e7
10003618:	100035e7 	.word	0x100035e7
1000361c:	100035e7 	.word	0x100035e7
10003620:	10003681 	.word	0x10003681
10003624:	10003663 	.word	0x10003663
10003628:	1000364d 	.word	0x1000364d
1000362c:	8863      	ldrh	r3, [r4, #2]
1000362e:	0a1b      	lsrs	r3, r3, #8
10003630:	2b21      	cmp	r3, #33	@ 0x21
10003632:	d07d      	beq.n	10003730 <hidd_control_xfer_cb+0x184>
10003634:	2b22      	cmp	r3, #34	@ 0x22
10003636:	d1d6      	bne.n	100035e6 <hidd_control_xfer_cb+0x3a>
10003638:	4610      	mov	r0, r2
1000363a:	f7fc ff2d 	bl	10000498 <tud_hid_descriptor_report_cb>
1000363e:	4621      	mov	r1, r4
10003640:	4602      	mov	r2, r0
10003642:	88b3      	ldrh	r3, [r6, #4]
10003644:	4628      	mov	r0, r5
10003646:	f7ff fded 	bl	10003224 <tud_control_xfer>
1000364a:	e7c6      	b.n	100035da <hidd_control_xfer_cb+0x2e>
1000364c:	2901      	cmp	r1, #1
1000364e:	d012      	beq.n	10003676 <hidd_control_xfer_cb+0xca>
10003650:	2903      	cmp	r1, #3
10003652:	d1c2      	bne.n	100035da <hidd_control_xfer_cb+0x2e>
10003654:	8861      	ldrh	r1, [r4, #2]
10003656:	2000      	movs	r0, #0
10003658:	b2c9      	uxtb	r1, r1
1000365a:	71b1      	strb	r1, [r6, #6]
1000365c:	f7ff fed8 	bl	10003410 <tud_hid_set_protocol_cb>
10003660:	e7bb      	b.n	100035da <hidd_control_xfer_cb+0x2e>
10003662:	2901      	cmp	r1, #1
10003664:	d1b9      	bne.n	100035da <hidd_control_xfer_cb+0x2e>
10003666:	8861      	ldrh	r1, [r4, #2]
10003668:	2000      	movs	r0, #0
1000366a:	0a09      	lsrs	r1, r1, #8
1000366c:	71f1      	strb	r1, [r6, #7]
1000366e:	f7ff fed1 	bl	10003414 <tud_hid_set_idle_cb>
10003672:	2800      	cmp	r0, #0
10003674:	d0b7      	beq.n	100035e6 <hidd_control_xfer_cb+0x3a>
10003676:	4621      	mov	r1, r4
10003678:	4628      	mov	r0, r5
1000367a:	f7ff fdb9 	bl	100031f0 <tud_control_status>
1000367e:	e7ac      	b.n	100035da <hidd_control_xfer_cb+0x2e>
10003680:	2901      	cmp	r1, #1
10003682:	d060      	beq.n	10003746 <hidd_control_xfer_cb+0x19a>
10003684:	2903      	cmp	r1, #3
10003686:	d1a8      	bne.n	100035da <hidd_control_xfer_cb+0x2e>
10003688:	88e0      	ldrh	r0, [r4, #6]
1000368a:	8863      	ldrh	r3, [r4, #2]
1000368c:	2810      	cmp	r0, #16
1000368e:	4604      	mov	r4, r0
10003690:	bf28      	it	cs
10003692:	2410      	movcs	r4, #16
10003694:	f013 01ff 	ands.w	r1, r3, #255	@ 0xff
10003698:	ea4f 2213 	mov.w	r2, r3, lsr #8
1000369c:	4b31      	ldr	r3, [pc, #196]	@ (10003764 <hidd_control_xfer_cb+0x1b8>)
1000369e:	d007      	beq.n	100036b0 <hidd_control_xfer_cb+0x104>
100036a0:	2801      	cmp	r0, #1
100036a2:	d905      	bls.n	100036b0 <hidd_control_xfer_cb+0x104>
100036a4:	7818      	ldrb	r0, [r3, #0]
100036a6:	4288      	cmp	r0, r1
100036a8:	d102      	bne.n	100036b0 <hidd_control_xfer_cb+0x104>
100036aa:	3c01      	subs	r4, #1
100036ac:	b2a4      	uxth	r4, r4
100036ae:	3301      	adds	r3, #1
100036b0:	2000      	movs	r0, #0
100036b2:	9400      	str	r4, [sp, #0]
100036b4:	f7fc ff7e 	bl	100005b4 <tud_hid_set_report_cb>
100036b8:	e78f      	b.n	100035da <hidd_control_xfer_cb+0x2e>
100036ba:	2901      	cmp	r1, #1
100036bc:	d18d      	bne.n	100035da <hidd_control_xfer_cb+0x2e>
100036be:	460b      	mov	r3, r1
100036c0:	4a29      	ldr	r2, [pc, #164]	@ (10003768 <hidd_control_xfer_cb+0x1bc>)
100036c2:	4621      	mov	r1, r4
100036c4:	f7ff fdae 	bl	10003224 <tud_control_xfer>
100036c8:	e787      	b.n	100035da <hidd_control_xfer_cb+0x2e>
100036ca:	2901      	cmp	r1, #1
100036cc:	d185      	bne.n	100035da <hidd_control_xfer_cb+0x2e>
100036ce:	460b      	mov	r3, r1
100036d0:	4a26      	ldr	r2, [pc, #152]	@ (1000376c <hidd_control_xfer_cb+0x1c0>)
100036d2:	4621      	mov	r1, r4
100036d4:	f7ff fda6 	bl	10003224 <tud_control_xfer>
100036d8:	e77f      	b.n	100035da <hidd_control_xfer_cb+0x2e>
100036da:	2901      	cmp	r1, #1
100036dc:	f47f af7d 	bne.w	100035da <hidd_control_xfer_cb+0x2e>
100036e0:	88e6      	ldrh	r6, [r4, #6]
100036e2:	8863      	ldrh	r3, [r4, #2]
100036e4:	2e10      	cmp	r6, #16
100036e6:	46b4      	mov	ip, r6
100036e8:	bf28      	it	cs
100036ea:	f04f 0c10 	movcs.w	ip, #16
100036ee:	f013 00ff 	ands.w	r0, r3, #255	@ 0xff
100036f2:	ea4f 2213 	mov.w	r2, r3, lsr #8
100036f6:	d030      	beq.n	1000375a <hidd_control_xfer_cb+0x1ae>
100036f8:	2e01      	cmp	r6, #1
100036fa:	d92e      	bls.n	1000375a <hidd_control_xfer_cb+0x1ae>
100036fc:	460e      	mov	r6, r1
100036fe:	4b19      	ldr	r3, [pc, #100]	@ (10003764 <hidd_control_xfer_cb+0x1b8>)
10003700:	f10c 3cff 	add.w	ip, ip, #4294967295
10003704:	fa1f fc8c 	uxth.w	ip, ip
10003708:	f803 0b01 	strb.w	r0, [r3], #1
1000370c:	4601      	mov	r1, r0
1000370e:	f8cd c000 	str.w	ip, [sp]
10003712:	2000      	movs	r0, #0
10003714:	f7fc ff4c 	bl	100005b0 <tud_hid_get_report_cb>
10003718:	1833      	adds	r3, r6, r0
1000371a:	b29b      	uxth	r3, r3
1000371c:	b9bb      	cbnz	r3, 1000374e <hidd_control_xfer_cb+0x1a2>
1000371e:	f04f 23e0 	mov.w	r3, #3758153728	@ 0xe000e000
10003722:	f8d3 3df0 	ldr.w	r3, [r3, #3568]	@ 0xdf0
10003726:	07db      	lsls	r3, r3, #31
10003728:	f57f af5d 	bpl.w	100035e6 <hidd_control_xfer_cb+0x3a>
1000372c:	be00      	bkpt	0x0000
1000372e:	e75a      	b.n	100035e6 <hidd_control_xfer_cb+0x3a>
10003730:	68b2      	ldr	r2, [r6, #8]
10003732:	2a00      	cmp	r2, #0
10003734:	f43f af57 	beq.w	100035e6 <hidd_control_xfer_cb+0x3a>
10003738:	4621      	mov	r1, r4
1000373a:	7813      	ldrb	r3, [r2, #0]
1000373c:	b002      	add	sp, #8
1000373e:	e8bd 4070 	ldmia.w	sp!, {r4, r5, r6, lr}
10003742:	f7ff bd6f 	b.w	10003224 <tud_control_xfer>
10003746:	88e3      	ldrh	r3, [r4, #6]
10003748:	2b10      	cmp	r3, #16
1000374a:	f63f af4c 	bhi.w	100035e6 <hidd_control_xfer_cb+0x3a>
1000374e:	4621      	mov	r1, r4
10003750:	4628      	mov	r0, r5
10003752:	4a04      	ldr	r2, [pc, #16]	@ (10003764 <hidd_control_xfer_cb+0x1b8>)
10003754:	f7ff fd66 	bl	10003224 <tud_control_xfer>
10003758:	e73f      	b.n	100035da <hidd_control_xfer_cb+0x2e>
1000375a:	2600      	movs	r6, #0
1000375c:	4b01      	ldr	r3, [pc, #4]	@ (10003764 <hidd_control_xfer_cb+0x1b8>)
1000375e:	e7d5      	b.n	1000370c <hidd_control_xfer_cb+0x160>
10003760:	20001414 	.word	0x20001414
10003764:	200013e4 	.word	0x200013e4
10003768:	2000141a 	.word	0x2000141a
1000376c:	2000141b 	.word	0x2000141b

10003770 <hidd_xfer_cb>:
10003770:	b570      	push	{r4, r5, r6, lr}
10003772:	460c      	mov	r4, r1
10003774:	4d20      	ldr	r5, [pc, #128]	@ (100037f8 <hidd_xfer_cb+0x88>)
10003776:	4611      	mov	r1, r2
10003778:	f895 c002 	ldrb.w	ip, [r5, #2]
1000377c:	f895 e001 	ldrb.w	lr, [r5, #1]
10003780:	45a4      	cmp	ip, r4
10003782:	b082      	sub	sp, #8
10003784:	d00b      	beq.n	1000379e <hidd_xfer_cb+0x2e>
10003786:	45a6      	cmp	lr, r4
10003788:	d01f      	beq.n	100037ca <hidd_xfer_cb+0x5a>
1000378a:	f04f 23e0 	mov.w	r3, #3758153728	@ 0xe000e000
1000378e:	f8d3 3df0 	ldr.w	r3, [r3, #3568]	@ 0xdf0
10003792:	07db      	lsls	r3, r3, #31
10003794:	d500      	bpl.n	10003798 <hidd_xfer_cb+0x28>
10003796:	be00      	bkpt	0x0000
10003798:	2000      	movs	r0, #0
1000379a:	b002      	add	sp, #8
1000379c:	bd70      	pop	{r4, r5, r6, pc}
1000379e:	45e6      	cmp	lr, ip
100037a0:	b29c      	uxth	r4, r3
100037a2:	d013      	beq.n	100037cc <hidd_xfer_cb+0x5c>
100037a4:	4606      	mov	r6, r0
100037a6:	b9c1      	cbnz	r1, 100037da <hidd_xfer_cb+0x6a>
100037a8:	2202      	movs	r2, #2
100037aa:	4608      	mov	r0, r1
100037ac:	4b13      	ldr	r3, [pc, #76]	@ (100037fc <hidd_xfer_cb+0x8c>)
100037ae:	9400      	str	r4, [sp, #0]
100037b0:	f7fc ff00 	bl	100005b4 <tud_hid_set_report_cb>
100037b4:	2310      	movs	r3, #16
100037b6:	4630      	mov	r0, r6
100037b8:	4a10      	ldr	r2, [pc, #64]	@ (100037fc <hidd_xfer_cb+0x8c>)
100037ba:	78a9      	ldrb	r1, [r5, #2]
100037bc:	f7ff fcd2 	bl	10003164 <usbd_edpt_xfer>
100037c0:	2800      	cmp	r0, #0
100037c2:	d0e2      	beq.n	1000378a <hidd_xfer_cb+0x1a>
100037c4:	2001      	movs	r0, #1
100037c6:	b002      	add	sp, #8
100037c8:	bd70      	pop	{r4, r5, r6, pc}
100037ca:	b29c      	uxth	r4, r3
100037cc:	b961      	cbnz	r1, 100037e8 <hidd_xfer_cb+0x78>
100037ce:	4608      	mov	r0, r1
100037d0:	4622      	mov	r2, r4
100037d2:	490b      	ldr	r1, [pc, #44]	@ (10003800 <hidd_xfer_cb+0x90>)
100037d4:	f7ff fe20 	bl	10003418 <tud_hid_report_complete_cb>
100037d8:	e7f4      	b.n	100037c4 <hidd_xfer_cb+0x54>
100037da:	4623      	mov	r3, r4
100037dc:	2102      	movs	r1, #2
100037de:	2000      	movs	r0, #0
100037e0:	4a06      	ldr	r2, [pc, #24]	@ (100037fc <hidd_xfer_cb+0x8c>)
100037e2:	f7ff fe1b 	bl	1000341c <tud_hid_report_failed_cb>
100037e6:	e7e5      	b.n	100037b4 <hidd_xfer_cb+0x44>
100037e8:	4623      	mov	r3, r4
100037ea:	2101      	movs	r1, #1
100037ec:	2000      	movs	r0, #0
100037ee:	4a04      	ldr	r2, [pc, #16]	@ (10003800 <hidd_xfer_cb+0x90>)
100037f0:	f7ff fe14 	bl	1000341c <tud_hid_report_failed_cb>
100037f4:	e7e6      	b.n	100037c4 <hidd_xfer_cb+0x54>
100037f6:	bf00      	nop
100037f8:	20001414 	.word	0x20001414
100037fc:	20001404 	.word	0x20001404
10003800:	200013f4 	.word	0x200013f4

10003804 <tusb_rhport_init>:
10003804:	b510      	push	{r4, lr}
10003806:	b082      	sub	sp, #8
10003808:	b1c9      	cbz	r1, 1000383e <tusb_rhport_init+0x3a>
1000380a:	2801      	cmp	r0, #1
1000380c:	d80c      	bhi.n	10003828 <tusb_rhport_init+0x24>
1000380e:	780b      	ldrb	r3, [r1, #0]
10003810:	b153      	cbz	r3, 10003828 <tusb_rhport_init+0x24>
10003812:	4c14      	ldr	r4, [pc, #80]	@ (10003864 <tusb_rhport_init+0x60>)
10003814:	2b01      	cmp	r3, #1
10003816:	5423      	strb	r3, [r4, r0]
10003818:	d002      	beq.n	10003820 <tusb_rhport_init+0x1c>
1000381a:	2001      	movs	r0, #1
1000381c:	b002      	add	sp, #8
1000381e:	bd10      	pop	{r4, pc}
10003820:	f7ff f81a 	bl	10002858 <tud_rhport_init>
10003824:	2800      	cmp	r0, #0
10003826:	d1f8      	bne.n	1000381a <tusb_rhport_init+0x16>
10003828:	f04f 23e0 	mov.w	r3, #3758153728	@ 0xe000e000
1000382c:	f8d3 3df0 	ldr.w	r3, [r3, #3568]	@ 0xdf0
10003830:	07db      	lsls	r3, r3, #31
10003832:	d402      	bmi.n	1000383a <tusb_rhport_init+0x36>
10003834:	2000      	movs	r0, #0
10003836:	b002      	add	sp, #8
10003838:	bd10      	pop	{r4, pc}
1000383a:	be00      	bkpt	0x0000
1000383c:	e7fa      	b.n	10003834 <tusb_rhport_init+0x30>
1000383e:	2401      	movs	r4, #1
10003840:	4608      	mov	r0, r1
10003842:	a901      	add	r1, sp, #4
10003844:	f8ad 4004 	strh.w	r4, [sp, #4]
10003848:	f7ff f806 	bl	10002858 <tud_rhport_init>
1000384c:	b938      	cbnz	r0, 1000385e <tusb_rhport_init+0x5a>
1000384e:	f04f 23e0 	mov.w	r3, #3758153728	@ 0xe000e000
10003852:	f8d3 3df0 	ldr.w	r3, [r3, #3568]	@ 0xdf0
10003856:	07da      	lsls	r2, r3, #31
10003858:	d5ed      	bpl.n	10003836 <tusb_rhport_init+0x32>
1000385a:	be00      	bkpt	0x0000
1000385c:	e7eb      	b.n	10003836 <tusb_rhport_init+0x32>
1000385e:	4b01      	ldr	r3, [pc, #4]	@ (10003864 <tusb_rhport_init+0x60>)
10003860:	701c      	strb	r4, [r3, #0]
10003862:	e7e8      	b.n	10003836 <tusb_rhport_init+0x32>
10003864:	20001440 	.word	0x20001440

10003868 <tu_edpt_claim>:
10003868:	b5f8      	push	{r3, r4, r5, r6, r7, lr}
1000386a:	7803      	ldrb	r3, [r0, #0]
1000386c:	f013 0401 	ands.w	r4, r3, #1
10003870:	d11a      	bne.n	100038a8 <tu_edpt_claim+0x40>
10003872:	7803      	ldrb	r3, [r0, #0]
10003874:	4605      	mov	r5, r0
10003876:	075a      	lsls	r2, r3, #29
10003878:	f3c3 0780 	ubfx	r7, r3, #2, #1
1000387c:	d501      	bpl.n	10003882 <tu_edpt_claim+0x1a>
1000387e:	4620      	mov	r0, r4
10003880:	bdf8      	pop	{r3, r4, r5, r6, r7, pc}
10003882:	460e      	mov	r6, r1
10003884:	f04f 31ff 	mov.w	r1, #4294967295
10003888:	4630      	mov	r0, r6
1000388a:	f000 fa51 	bl	10003d30 <__mutex_enter_timeout_ms_veneer>
1000388e:	782b      	ldrb	r3, [r5, #0]
10003890:	f013 0401 	ands.w	r4, r3, #1
10003894:	d10b      	bne.n	100038ae <tu_edpt_claim+0x46>
10003896:	782b      	ldrb	r3, [r5, #0]
10003898:	075b      	lsls	r3, r3, #29
1000389a:	d409      	bmi.n	100038b0 <tu_edpt_claim+0x48>
1000389c:	782b      	ldrb	r3, [r5, #0]
1000389e:	2401      	movs	r4, #1
100038a0:	f043 0304 	orr.w	r3, r3, #4
100038a4:	702b      	strb	r3, [r5, #0]
100038a6:	e003      	b.n	100038b0 <tu_edpt_claim+0x48>
100038a8:	2400      	movs	r4, #0
100038aa:	4620      	mov	r0, r4
100038ac:	bdf8      	pop	{r3, r4, r5, r6, r7, pc}
100038ae:	463c      	mov	r4, r7
100038b0:	4630      	mov	r0, r6
100038b2:	f000 fa49 	bl	10003d48 <__mutex_exit_veneer>
100038b6:	4620      	mov	r0, r4
100038b8:	bdf8      	pop	{r3, r4, r5, r6, r7, pc}
100038ba:	bf00      	nop

100038bc <tu_edpt_validate>:
100038bc:	78c3      	ldrb	r3, [r0, #3]
100038be:	8882      	ldrh	r2, [r0, #4]
100038c0:	f003 0003 	and.w	r0, r3, #3
100038c4:	2802      	cmp	r0, #2
100038c6:	f3c2 020a 	ubfx	r2, r2, #0, #11
100038ca:	d015      	beq.n	100038f8 <tu_edpt_validate+0x3c>
100038cc:	2803      	cmp	r0, #3
100038ce:	d00a      	beq.n	100038e6 <tu_edpt_validate+0x2a>
100038d0:	2801      	cmp	r0, #1
100038d2:	d11c      	bne.n	1000390e <tu_edpt_validate+0x52>
100038d4:	2902      	cmp	r1, #2
100038d6:	f240 33ff 	movw	r3, #1023	@ 0x3ff
100038da:	bf08      	it	eq
100038dc:	f44f 6380 	moveq.w	r3, #1024	@ 0x400
100038e0:	4293      	cmp	r3, r2
100038e2:	d30d      	bcc.n	10003900 <tu_edpt_validate+0x44>
100038e4:	4770      	bx	lr
100038e6:	2902      	cmp	r1, #2
100038e8:	bf14      	ite	ne
100038ea:	2340      	movne	r3, #64	@ 0x40
100038ec:	f44f 6380 	moveq.w	r3, #1024	@ 0x400
100038f0:	4293      	cmp	r3, r2
100038f2:	d305      	bcc.n	10003900 <tu_edpt_validate+0x44>
100038f4:	2001      	movs	r0, #1
100038f6:	4770      	bx	lr
100038f8:	2902      	cmp	r1, #2
100038fa:	d00a      	beq.n	10003912 <tu_edpt_validate+0x56>
100038fc:	2a40      	cmp	r2, #64	@ 0x40
100038fe:	d9f9      	bls.n	100038f4 <tu_edpt_validate+0x38>
10003900:	f04f 23e0 	mov.w	r3, #3758153728	@ 0xe000e000
10003904:	f8d3 3df0 	ldr.w	r3, [r3, #3568]	@ 0xdf0
10003908:	07db      	lsls	r3, r3, #31
1000390a:	d500      	bpl.n	1000390e <tu_edpt_validate+0x52>
1000390c:	be00      	bkpt	0x0000
1000390e:	2000      	movs	r0, #0
10003910:	4770      	bx	lr
10003912:	f5b2 7f00 	cmp.w	r2, #512	@ 0x200
10003916:	d0ed      	beq.n	100038f4 <tu_edpt_validate+0x38>
10003918:	e7f2      	b.n	10003900 <tu_edpt_validate+0x44>
1000391a:	bf00      	nop

1000391c <tu_edpt_bind_driver>:
1000391c:	440a      	add	r2, r1
1000391e:	4291      	cmp	r1, r2
10003920:	d226      	bcs.n	10003970 <tu_edpt_bind_driver+0x54>
10003922:	f891 c001 	ldrb.w	ip, [r1, #1]
10003926:	f1bc 0f05 	cmp.w	ip, #5
1000392a:	d005      	beq.n	10003938 <tu_edpt_bind_driver+0x1c>
1000392c:	f891 c000 	ldrb.w	ip, [r1]
10003930:	4461      	add	r1, ip
10003932:	428a      	cmp	r2, r1
10003934:	d8f5      	bhi.n	10003922 <tu_edpt_bind_driver+0x6>
10003936:	4770      	bx	lr
10003938:	b500      	push	{lr}
1000393a:	f891 c002 	ldrb.w	ip, [r1, #2]
1000393e:	f00c 0e7f 	and.w	lr, ip, #127	@ 0x7f
10003942:	eb00 0e4e 	add.w	lr, r0, lr, lsl #1
10003946:	ea4f 1cdc 	mov.w	ip, ip, lsr #7
1000394a:	f80e 300c 	strb.w	r3, [lr, ip]
1000394e:	f891 c000 	ldrb.w	ip, [r1]
10003952:	4461      	add	r1, ip
10003954:	428a      	cmp	r2, r1
10003956:	d909      	bls.n	1000396c <tu_edpt_bind_driver+0x50>
10003958:	f891 c001 	ldrb.w	ip, [r1, #1]
1000395c:	f1bc 0f05 	cmp.w	ip, #5
10003960:	d0eb      	beq.n	1000393a <tu_edpt_bind_driver+0x1e>
10003962:	f891 c000 	ldrb.w	ip, [r1]
10003966:	4461      	add	r1, ip
10003968:	428a      	cmp	r2, r1
1000396a:	d8f5      	bhi.n	10003958 <tu_edpt_bind_driver+0x3c>
1000396c:	f85d fb04 	ldr.w	pc, [sp], #4
10003970:	4770      	bx	lr
10003972:	bf00      	nop

10003974 <tu_fifo_read>:
10003974:	b538      	push	{r3, r4, r5, lr}
10003976:	4604      	mov	r4, r0
10003978:	6900      	ldr	r0, [r0, #16]
1000397a:	460d      	mov	r5, r1
1000397c:	b118      	cbz	r0, 10003986 <tu_fifo_read+0x12>
1000397e:	f04f 31ff 	mov.w	r1, #4294967295
10003982:	f000 f9d5 	bl	10003d30 <__mutex_enter_timeout_ms_veneer>
10003986:	8921      	ldrh	r1, [r4, #8]
10003988:	8963      	ldrh	r3, [r4, #10]
1000398a:	b289      	uxth	r1, r1
1000398c:	b29b      	uxth	r3, r3
1000398e:	88a2      	ldrh	r2, [r4, #4]
10003990:	4299      	cmp	r1, r3
10003992:	bf36      	itet	cc
10003994:	ebc3 0042 	rsbcc	r0, r3, r2, lsl #1
10003998:	1ac8      	subcs	r0, r1, r3
1000399a:	1840      	addcc	r0, r0, r1
1000399c:	b280      	uxth	r0, r0
1000399e:	b350      	cbz	r0, 100039f6 <tu_fifo_read+0x82>
100039a0:	4282      	cmp	r2, r0
100039a2:	d209      	bcs.n	100039b8 <tu_fifo_read+0x44>
100039a4:	4291      	cmp	r1, r2
100039a6:	bf2c      	ite	cs
100039a8:	1a89      	subcs	r1, r1, r2
100039aa:	1889      	addcc	r1, r1, r2
100039ac:	b28b      	uxth	r3, r1
100039ae:	429a      	cmp	r2, r3
100039b0:	8163      	strh	r3, [r4, #10]
100039b2:	d803      	bhi.n	100039bc <tu_fifo_read+0x48>
100039b4:	1a9b      	subs	r3, r3, r2
100039b6:	b29b      	uxth	r3, r3
100039b8:	429a      	cmp	r2, r3
100039ba:	d9fb      	bls.n	100039b4 <tu_fifo_read+0x40>
100039bc:	88e2      	ldrh	r2, [r4, #6]
100039be:	6821      	ldr	r1, [r4, #0]
100039c0:	f3c2 020e 	ubfx	r2, r2, #0, #15
100039c4:	fb02 1103 	mla	r1, r2, r3, r1
100039c8:	4628      	mov	r0, r5
100039ca:	f000 f90b 	bl	10003be4 <memcpy>
100039ce:	8961      	ldrh	r1, [r4, #10]
100039d0:	2501      	movs	r5, #1
100039d2:	b289      	uxth	r1, r1
100039d4:	1c4b      	adds	r3, r1, #1
100039d6:	b29b      	uxth	r3, r3
100039d8:	4299      	cmp	r1, r3
100039da:	88a2      	ldrh	r2, [r4, #4]
100039dc:	d90e      	bls.n	100039fc <tu_fifo_read+0x88>
100039de:	2300      	movs	r3, #0
100039e0:	fa02 f105 	lsl.w	r1, r2, r5
100039e4:	1a5b      	subs	r3, r3, r1
100039e6:	b29b      	uxth	r3, r3
100039e8:	6920      	ldr	r0, [r4, #16]
100039ea:	8163      	strh	r3, [r4, #10]
100039ec:	b108      	cbz	r0, 100039f2 <tu_fifo_read+0x7e>
100039ee:	f000 f9ab 	bl	10003d48 <__mutex_exit_veneer>
100039f2:	4628      	mov	r0, r5
100039f4:	bd38      	pop	{r3, r4, r5, pc}
100039f6:	4605      	mov	r5, r0
100039f8:	8963      	ldrh	r3, [r4, #10]
100039fa:	b29b      	uxth	r3, r3
100039fc:	ebb3 0f42 	cmp.w	r3, r2, lsl #1
10003a00:	ea4f 0142 	mov.w	r1, r2, lsl #1
10003a04:	dbf0      	blt.n	100039e8 <tu_fifo_read+0x74>
10003a06:	e7ed      	b.n	100039e4 <tu_fifo_read+0x70>

10003a08 <tu_fifo_write>:
10003a08:	b5f8      	push	{r3, r4, r5, r6, r7, lr}
10003a0a:	4604      	mov	r4, r0
10003a0c:	68c0      	ldr	r0, [r0, #12]
10003a0e:	460e      	mov	r6, r1
10003a10:	b118      	cbz	r0, 10003a1a <tu_fifo_write+0x12>
10003a12:	f04f 31ff 	mov.w	r1, #4294967295
10003a16:	f000 f98b 	bl	10003d30 <__mutex_enter_timeout_ms_veneer>
10003a1a:	8925      	ldrh	r5, [r4, #8]
10003a1c:	8923      	ldrh	r3, [r4, #8]
10003a1e:	8961      	ldrh	r1, [r4, #10]
10003a20:	b29b      	uxth	r3, r3
10003a22:	b289      	uxth	r1, r1
10003a24:	88a2      	ldrh	r2, [r4, #4]
10003a26:	428b      	cmp	r3, r1
10003a28:	bf36      	itet	cc
10003a2a:	ebc1 0142 	rsbcc	r1, r1, r2, lsl #1
10003a2e:	1a5b      	subcs	r3, r3, r1
10003a30:	185b      	addcc	r3, r3, r1
10003a32:	b29b      	uxth	r3, r3
10003a34:	429a      	cmp	r2, r3
10003a36:	b2ad      	uxth	r5, r5
10003a38:	d808      	bhi.n	10003a4c <tu_fifo_write+0x44>
10003a3a:	79e7      	ldrb	r7, [r4, #7]
10003a3c:	09ff      	lsrs	r7, r7, #7
10003a3e:	d105      	bne.n	10003a4c <tu_fifo_write+0x44>
10003a40:	68e0      	ldr	r0, [r4, #12]
10003a42:	b108      	cbz	r0, 10003a48 <tu_fifo_write+0x40>
10003a44:	f000 f980 	bl	10003d48 <__mutex_exit_veneer>
10003a48:	4638      	mov	r0, r7
10003a4a:	bdf8      	pop	{r3, r4, r5, r6, r7, pc}
10003a4c:	4295      	cmp	r5, r2
10003a4e:	bf28      	it	cs
10003a50:	462b      	movcs	r3, r5
10003a52:	d318      	bcc.n	10003a86 <tu_fifo_write+0x7e>
10003a54:	1a9b      	subs	r3, r3, r2
10003a56:	b29b      	uxth	r3, r3
10003a58:	4293      	cmp	r3, r2
10003a5a:	d2fb      	bcs.n	10003a54 <tu_fifo_write+0x4c>
10003a5c:	88e2      	ldrh	r2, [r4, #6]
10003a5e:	6820      	ldr	r0, [r4, #0]
10003a60:	f3c2 020e 	ubfx	r2, r2, #0, #15
10003a64:	fb02 0003 	mla	r0, r2, r3, r0
10003a68:	4631      	mov	r1, r6
10003a6a:	f000 f8bb 	bl	10003be4 <memcpy>
10003a6e:	1c6b      	adds	r3, r5, #1
10003a70:	b29b      	uxth	r3, r3
10003a72:	429d      	cmp	r5, r3
10003a74:	88a2      	ldrh	r2, [r4, #4]
10003a76:	d912      	bls.n	10003a9e <tu_fifo_write+0x96>
10003a78:	2300      	movs	r3, #0
10003a7a:	0051      	lsls	r1, r2, #1
10003a7c:	1a5b      	subs	r3, r3, r1
10003a7e:	b29b      	uxth	r3, r3
10003a80:	2701      	movs	r7, #1
10003a82:	8123      	strh	r3, [r4, #8]
10003a84:	e7dc      	b.n	10003a40 <tu_fifo_write+0x38>
10003a86:	88e2      	ldrh	r2, [r4, #6]
10003a88:	6820      	ldr	r0, [r4, #0]
10003a8a:	f3c2 020e 	ubfx	r2, r2, #0, #15
10003a8e:	fb05 0002 	mla	r0, r5, r2, r0
10003a92:	4631      	mov	r1, r6
10003a94:	f000 f8a6 	bl	10003be4 <memcpy>
10003a98:	3501      	adds	r5, #1
10003a9a:	88a2      	ldrh	r2, [r4, #4]
10003a9c:	b2ab      	uxth	r3, r5
10003a9e:	ebb3 0f42 	cmp.w	r3, r2, lsl #1
10003aa2:	ea4f 0142 	mov.w	r1, r2, lsl #1
10003aa6:	dbeb      	blt.n	10003a80 <tu_fifo_write+0x78>
10003aa8:	e7e8      	b.n	10003a7c <tu_fifo_write+0x74>
10003aaa:	bf00      	nop

10003aac <tu_fifo_clear>:
10003aac:	b510      	push	{r4, lr}
10003aae:	4604      	mov	r4, r0
10003ab0:	68c0      	ldr	r0, [r0, #12]
10003ab2:	b118      	cbz	r0, 10003abc <tu_fifo_clear+0x10>
10003ab4:	f04f 31ff 	mov.w	r1, #4294967295
10003ab8:	f000 f93a 	bl	10003d30 <__mutex_enter_timeout_ms_veneer>
10003abc:	6920      	ldr	r0, [r4, #16]
10003abe:	b118      	cbz	r0, 10003ac8 <tu_fifo_clear+0x1c>
10003ac0:	f04f 31ff 	mov.w	r1, #4294967295
10003ac4:	f000 f934 	bl	10003d30 <__mutex_enter_timeout_ms_veneer>
10003ac8:	2300      	movs	r3, #0
10003aca:	68e0      	ldr	r0, [r4, #12]
10003acc:	8163      	strh	r3, [r4, #10]
10003ace:	8123      	strh	r3, [r4, #8]
10003ad0:	b108      	cbz	r0, 10003ad6 <tu_fifo_clear+0x2a>
10003ad2:	f000 f939 	bl	10003d48 <__mutex_exit_veneer>
10003ad6:	6920      	ldr	r0, [r4, #16]
10003ad8:	b108      	cbz	r0, 10003ade <tu_fifo_clear+0x32>
10003ada:	f000 f935 	bl	10003d48 <__mutex_exit_veneer>
10003ade:	2001      	movs	r0, #1
10003ae0:	bd10      	pop	{r4, pc}
10003ae2:	bf00      	nop

10003ae4 <board_get_unique_id>:
10003ae4:	b530      	push	{r4, r5, lr}
10003ae6:	460c      	mov	r4, r1
10003ae8:	b083      	sub	sp, #12
10003aea:	4605      	mov	r5, r0
10003aec:	4668      	mov	r0, sp
10003aee:	f000 f823 	bl	10003b38 <pico_get_unique_board_id>
10003af2:	2c08      	cmp	r4, #8
10003af4:	bf28      	it	cs
10003af6:	2408      	movcs	r4, #8
10003af8:	4669      	mov	r1, sp
10003afa:	4628      	mov	r0, r5
10003afc:	4622      	mov	r2, r4
10003afe:	f000 f871 	bl	10003be4 <memcpy>
10003b02:	4620      	mov	r0, r4
10003b04:	b003      	add	sp, #12
10003b06:	bd30      	pop	{r4, r5, pc}

10003b08 <_retrieve_unique_id_on_boot>:
10003b08:	b500      	push	{lr}
10003b0a:	f245 3047 	movw	r0, #21319	@ 0x5347
10003b0e:	b08b      	sub	sp, #44	@ 0x2c
10003b10:	f7fd fce4 	bl	100014dc <rom_func_lookup>
10003b14:	2201      	movs	r2, #1
10003b16:	4603      	mov	r3, r0
10003b18:	2109      	movs	r1, #9
10003b1a:	a801      	add	r0, sp, #4
10003b1c:	4798      	blx	r3
10003b1e:	e9dd 3203 	ldrd	r3, r2, [sp, #12]
10003b22:	4904      	ldr	r1, [pc, #16]	@ (10003b34 <_retrieve_unique_id_on_boot+0x2c>)
10003b24:	ba12      	rev	r2, r2
10003b26:	ba1b      	rev	r3, r3
10003b28:	e9c1 2300 	strd	r2, r3, [r1]
10003b2c:	b00b      	add	sp, #44	@ 0x2c
10003b2e:	f85d fb04 	ldr.w	pc, [sp], #4
10003b32:	bf00      	nop
10003b34:	200019e4 	.word	0x200019e4

10003b38 <pico_get_unique_board_id>:
10003b38:	4603      	mov	r3, r0
10003b3a:	4a02      	ldr	r2, [pc, #8]	@ (10003b44 <pico_get_unique_board_id+0xc>)
10003b3c:	ca03      	ldmia	r2!, {r0, r1}
10003b3e:	6018      	str	r0, [r3, #0]
10003b40:	6059      	str	r1, [r3, #4]
10003b42:	4770      	bx	lr
10003b44:	200019e4 	.word	0x200019e4

10003b48 <memset>:
10003b48:	0783      	lsls	r3, r0, #30
10003b4a:	b530      	push	{r4, r5, lr}
10003b4c:	d046      	beq.n	10003bdc <memset+0x94>
10003b4e:	1884      	adds	r4, r0, r2
10003b50:	4684      	mov	ip, r0
10003b52:	e004      	b.n	10003b5e <memset+0x16>
10003b54:	f803 1b01 	strb.w	r1, [r3], #1
10003b58:	079d      	lsls	r5, r3, #30
10003b5a:	d004      	beq.n	10003b66 <memset+0x1e>
10003b5c:	469c      	mov	ip, r3
10003b5e:	45a4      	cmp	ip, r4
10003b60:	4663      	mov	r3, ip
10003b62:	d1f7      	bne.n	10003b54 <memset+0xc>
10003b64:	bd30      	pop	{r4, r5, pc}
10003b66:	3a01      	subs	r2, #1
10003b68:	4402      	add	r2, r0
10003b6a:	eba2 020c 	sub.w	r2, r2, ip
10003b6e:	2a03      	cmp	r2, #3
10003b70:	d929      	bls.n	10003bc6 <memset+0x7e>
10003b72:	b2cc      	uxtb	r4, r1
10003b74:	2a0f      	cmp	r2, #15
10003b76:	eb04 2404 	add.w	r4, r4, r4, lsl #8
10003b7a:	eb04 4404 	add.w	r4, r4, r4, lsl #16
10003b7e:	d92f      	bls.n	10003be0 <memset+0x98>
10003b80:	f1a2 0c10 	sub.w	ip, r2, #16
10003b84:	f103 0510 	add.w	r5, r3, #16
10003b88:	f02c 0c0f 	bic.w	ip, ip, #15
10003b8c:	44ac      	add	ip, r5
10003b8e:	e9c3 4400 	strd	r4, r4, [r3]
10003b92:	e9c3 4402 	strd	r4, r4, [r3, #8]
10003b96:	3310      	adds	r3, #16
10003b98:	4563      	cmp	r3, ip
10003b9a:	d1f8      	bne.n	10003b8e <memset+0x46>
10003b9c:	f012 0f0c 	tst.w	r2, #12
10003ba0:	f002 0e0f 	and.w	lr, r2, #15
10003ba4:	d018      	beq.n	10003bd8 <memset+0x90>
10003ba6:	f02e 0c03 	bic.w	ip, lr, #3
10003baa:	f1ae 0504 	sub.w	r5, lr, #4
10003bae:	461a      	mov	r2, r3
10003bb0:	449c      	add	ip, r3
10003bb2:	f842 4b04 	str.w	r4, [r2], #4
10003bb6:	4562      	cmp	r2, ip
10003bb8:	d1fb      	bne.n	10003bb2 <memset+0x6a>
10003bba:	f025 0403 	bic.w	r4, r5, #3
10003bbe:	3304      	adds	r3, #4
10003bc0:	f00e 0203 	and.w	r2, lr, #3
10003bc4:	4423      	add	r3, r4
10003bc6:	2a00      	cmp	r2, #0
10003bc8:	d0cc      	beq.n	10003b64 <memset+0x1c>
10003bca:	b2c9      	uxtb	r1, r1
10003bcc:	441a      	add	r2, r3
10003bce:	f803 1b01 	strb.w	r1, [r3], #1
10003bd2:	4293      	cmp	r3, r2
10003bd4:	d1fb      	bne.n	10003bce <memset+0x86>
10003bd6:	bd30      	pop	{r4, r5, pc}
10003bd8:	4672      	mov	r2, lr
10003bda:	e7f4      	b.n	10003bc6 <memset+0x7e>
10003bdc:	4603      	mov	r3, r0
10003bde:	e7c6      	b.n	10003b6e <memset+0x26>
10003be0:	4696      	mov	lr, r2
10003be2:	e7e0      	b.n	10003ba6 <memset+0x5e>

10003be4 <memcpy>:
10003be4:	4684      	mov	ip, r0
10003be6:	ea41 0300 	orr.w	r3, r1, r0
10003bea:	f013 0303 	ands.w	r3, r3, #3
10003bee:	d149      	bne.n	10003c84 <memcpy+0xa0>
10003bf0:	3a40      	subs	r2, #64	@ 0x40
10003bf2:	d323      	bcc.n	10003c3c <memcpy+0x58>
10003bf4:	680b      	ldr	r3, [r1, #0]
10003bf6:	6003      	str	r3, [r0, #0]
10003bf8:	684b      	ldr	r3, [r1, #4]
10003bfa:	6043      	str	r3, [r0, #4]
10003bfc:	688b      	ldr	r3, [r1, #8]
10003bfe:	6083      	str	r3, [r0, #8]
10003c00:	68cb      	ldr	r3, [r1, #12]
10003c02:	60c3      	str	r3, [r0, #12]
10003c04:	690b      	ldr	r3, [r1, #16]
10003c06:	6103      	str	r3, [r0, #16]
10003c08:	694b      	ldr	r3, [r1, #20]
10003c0a:	6143      	str	r3, [r0, #20]
10003c0c:	698b      	ldr	r3, [r1, #24]
10003c0e:	6183      	str	r3, [r0, #24]
10003c10:	69cb      	ldr	r3, [r1, #28]
10003c12:	61c3      	str	r3, [r0, #28]
10003c14:	6a0b      	ldr	r3, [r1, #32]
10003c16:	6203      	str	r3, [r0, #32]
10003c18:	6a4b      	ldr	r3, [r1, #36]	@ 0x24
10003c1a:	6243      	str	r3, [r0, #36]	@ 0x24
10003c1c:	6a8b      	ldr	r3, [r1, #40]	@ 0x28
10003c1e:	6283      	str	r3, [r0, #40]	@ 0x28
10003c20:	6acb      	ldr	r3, [r1, #44]	@ 0x2c
10003c22:	62c3      	str	r3, [r0, #44]	@ 0x2c
10003c24:	6b0b      	ldr	r3, [r1, #48]	@ 0x30
10003c26:	6303      	str	r3, [r0, #48]	@ 0x30
10003c28:	6b4b      	ldr	r3, [r1, #52]	@ 0x34
10003c2a:	6343      	str	r3, [r0, #52]	@ 0x34
10003c2c:	6b8b      	ldr	r3, [r1, #56]	@ 0x38
10003c2e:	6383      	str	r3, [r0, #56]	@ 0x38
10003c30:	6bcb      	ldr	r3, [r1, #60]	@ 0x3c
10003c32:	63c3      	str	r3, [r0, #60]	@ 0x3c
10003c34:	3040      	adds	r0, #64	@ 0x40
10003c36:	3140      	adds	r1, #64	@ 0x40
10003c38:	3a40      	subs	r2, #64	@ 0x40
10003c3a:	d2db      	bcs.n	10003bf4 <memcpy+0x10>
10003c3c:	3230      	adds	r2, #48	@ 0x30
10003c3e:	d30b      	bcc.n	10003c58 <memcpy+0x74>
10003c40:	680b      	ldr	r3, [r1, #0]
10003c42:	6003      	str	r3, [r0, #0]
10003c44:	684b      	ldr	r3, [r1, #4]
10003c46:	6043      	str	r3, [r0, #4]
10003c48:	688b      	ldr	r3, [r1, #8]
10003c4a:	6083      	str	r3, [r0, #8]
10003c4c:	68cb      	ldr	r3, [r1, #12]
10003c4e:	60c3      	str	r3, [r0, #12]
10003c50:	3010      	adds	r0, #16
10003c52:	3110      	adds	r1, #16
10003c54:	3a10      	subs	r2, #16
10003c56:	d2f3      	bcs.n	10003c40 <memcpy+0x5c>
10003c58:	320c      	adds	r2, #12
10003c5a:	d305      	bcc.n	10003c68 <memcpy+0x84>
10003c5c:	f851 3b04 	ldr.w	r3, [r1], #4
10003c60:	f840 3b04 	str.w	r3, [r0], #4
10003c64:	3a04      	subs	r2, #4
10003c66:	d2f9      	bcs.n	10003c5c <memcpy+0x78>
10003c68:	3204      	adds	r2, #4
10003c6a:	d008      	beq.n	10003c7e <memcpy+0x9a>
10003c6c:	07d2      	lsls	r2, r2, #31
10003c6e:	bf1c      	itt	ne
10003c70:	f811 3b01 	ldrbne.w	r3, [r1], #1
10003c74:	f800 3b01 	strbne.w	r3, [r0], #1
10003c78:	d301      	bcc.n	10003c7e <memcpy+0x9a>
10003c7a:	880b      	ldrh	r3, [r1, #0]
10003c7c:	8003      	strh	r3, [r0, #0]
10003c7e:	4660      	mov	r0, ip
10003c80:	4770      	bx	lr
10003c82:	bf00      	nop
10003c84:	2a08      	cmp	r2, #8
10003c86:	d313      	bcc.n	10003cb0 <memcpy+0xcc>
10003c88:	078b      	lsls	r3, r1, #30
10003c8a:	d0b1      	beq.n	10003bf0 <memcpy+0xc>
10003c8c:	f010 0303 	ands.w	r3, r0, #3
10003c90:	d0ae      	beq.n	10003bf0 <memcpy+0xc>
10003c92:	f1c3 0304 	rsb	r3, r3, #4
10003c96:	1ad2      	subs	r2, r2, r3
10003c98:	07db      	lsls	r3, r3, #31
10003c9a:	bf1c      	itt	ne
10003c9c:	f811 3b01 	ldrbne.w	r3, [r1], #1
10003ca0:	f800 3b01 	strbne.w	r3, [r0], #1
10003ca4:	d3a4      	bcc.n	10003bf0 <memcpy+0xc>
10003ca6:	f831 3b02 	ldrh.w	r3, [r1], #2
10003caa:	f820 3b02 	strh.w	r3, [r0], #2
10003cae:	e79f      	b.n	10003bf0 <memcpy+0xc>
10003cb0:	3a04      	subs	r2, #4
10003cb2:	d3d9      	bcc.n	10003c68 <memcpy+0x84>
10003cb4:	3a01      	subs	r2, #1
10003cb6:	f811 3b01 	ldrb.w	r3, [r1], #1
10003cba:	f800 3b01 	strb.w	r3, [r0], #1
10003cbe:	d2f9      	bcs.n	10003cb4 <memcpy+0xd0>
10003cc0:	780b      	ldrb	r3, [r1, #0]
10003cc2:	7003      	strb	r3, [r0, #0]
10003cc4:	784b      	ldrb	r3, [r1, #1]
10003cc6:	7043      	strb	r3, [r0, #1]
10003cc8:	788b      	ldrb	r3, [r1, #2]
10003cca:	7083      	strb	r3, [r0, #2]
10003ccc:	4660      	mov	r0, ip
10003cce:	4770      	bx	lr

10003cd0 <strlen>:
10003cd0:	f020 0103 	bic.w	r1, r0, #3
10003cd4:	f010 0003 	ands.w	r0, r0, #3
10003cd8:	f1c0 0000 	rsb	r0, r0, #0
10003cdc:	f851 3b04 	ldr.w	r3, [r1], #4
10003ce0:	f100 0c04 	add.w	ip, r0, #4
10003ce4:	ea4f 0ccc 	mov.w	ip, ip, lsl #3
10003ce8:	f06f 0200 	mvn.w	r2, #0
10003cec:	bf1c      	itt	ne
10003cee:	fa22 f20c 	lsrne.w	r2, r2, ip
10003cf2:	4313      	orrne	r3, r2
10003cf4:	f04f 0c01 	mov.w	ip, #1
10003cf8:	ea4c 2c0c 	orr.w	ip, ip, ip, lsl #8
10003cfc:	ea4c 4c0c 	orr.w	ip, ip, ip, lsl #16
10003d00:	eba3 020c 	sub.w	r2, r3, ip
10003d04:	ea22 0203 	bic.w	r2, r2, r3
10003d08:	ea12 12cc 	ands.w	r2, r2, ip, lsl #7
10003d0c:	bf04      	itt	eq
10003d0e:	f851 3b04 	ldreq.w	r3, [r1], #4
10003d12:	3004      	addeq	r0, #4
10003d14:	d0f4      	beq.n	10003d00 <strlen+0x30>
10003d16:	f1c2 0100 	rsb	r1, r2, #0
10003d1a:	ea02 0201 	and.w	r2, r2, r1
10003d1e:	fab2 f282 	clz	r2, r2
10003d22:	f1c2 021f 	rsb	r2, r2, #31
10003d26:	eb00 00d2 	add.w	r0, r0, r2, lsr #3
10003d2a:	4770      	bx	lr

10003d2c <_fini>:
10003d2c:	b5f8      	push	{r3, r4, r5, r6, r7, lr}
10003d2e:	bf00      	nop

10003d30 <__mutex_enter_timeout_ms_veneer>:
10003d30:	f85f f000 	ldr.w	pc, [pc]	@ 10003d34 <__mutex_enter_timeout_ms_veneer+0x4>
10003d34:	200001e5 	.word	0x200001e5

10003d38 <__hw_endpoint_start_next_buffer_veneer>:
10003d38:	f85f f000 	ldr.w	pc, [pc]	@ 10003d3c <__hw_endpoint_start_next_buffer_veneer+0x4>
10003d3c:	20000abd 	.word	0x20000abd

10003d40 <____aeabi_f2d_veneer>:
10003d40:	f85f f000 	ldr.w	pc, [pc]	@ 10003d44 <____aeabi_f2d_veneer+0x4>
10003d44:	2000103d 	.word	0x2000103d

10003d48 <__mutex_exit_veneer>:
10003d48:	f85f f000 	ldr.w	pc, [pc]	@ 10003d4c <__mutex_exit_veneer+0x4>
10003d4c:	2000021d 	.word	0x2000021d

10003d50 <__reset_non_control_endpoints_veneer>:
10003d50:	f85f f000 	ldr.w	pc, [pc]	@ 10003d54 <__reset_non_control_endpoints_veneer+0x4>
10003d54:	20000259 	.word	0x20000259

10003d58 <__e15_is_critical_frame_period_veneer>:
10003d58:	f85f f000 	ldr.w	pc, [pc]	@ 10003d5c <__e15_is_critical_frame_period_veneer+0x4>
10003d5c:	20000a45 	.word	0x20000a45

10003d60 <___hw_endpoint_buffer_control_update32_veneer>:
10003d60:	f85f f000 	ldr.w	pc, [pc]	@ 10003d64 <___hw_endpoint_buffer_control_update32_veneer+0x4>
10003d64:	20000a79 	.word	0x20000a79

10003d68 <__mutex_try_enter_block_until_veneer>:
10003d68:	f85f f000 	ldr.w	pc, [pc]	@ 10003d6c <__mutex_try_enter_block_until_veneer+0x4>
10003d6c:	2000017d 	.word	0x2000017d

10003d70 <__e15_is_bulkin_ep_veneer>:
10003d70:	f85f f000 	ldr.w	pc, [pc]	@ 10003d74 <__e15_is_bulkin_ep_veneer+0x4>
10003d74:	20000a1d 	.word	0x20000a1d

10003d78 <__pre_init_runtime_init_bootrom_reset>:
10003d78:	10001611                                ....

10003d7c <__pre_init_runtime_init_early_resets>:
10003d7c:	10001585                                ....

10003d80 <__pre_init_runtime_init_usb_power_down>:
10003d80:	100015b9                                ....

10003d84 <__pre_init_runtime_init_clocks>:
10003d84:	100016a5                                ....

10003d88 <__pre_init_runtime_init_post_clock_resets>:
10003d88:	100015f1                                ....

10003d8c <__pre_init_runtime_init_boot_locks_reset>:
10003d8c:	10001509                                ....

10003d90 <__pre_init_runtime_init_spin_locks_reset>:
10003d90:	10001639                                9...

10003d94 <__pre_init_runtime_init_bootrom_locking_enable>:
10003d94:	100014f5                                ....

10003d98 <__pre_init_runtime_init_mutex>:
10003d98:	10000b49                                I...

10003d9c <__pre_init_runtime_init_install_ram_vector_table>:
10003d9c:	1000163d                                =...

10003da0 <__pre_init_runtime_init_default_alarm_pool>:
10003da0:	10000ef9                                ....

10003da4 <__pre_init_first_per_core_initializer>:
10003da4:	10001555                                U...

10003da8 <__pre_init_runtime_init_per_core_bootrom_reset>:
10003da8:	10001625                                %...

10003dac <__pre_init_runtime_init_per_core_enable_coprocessors>:
10003dac:	100015d5                                ....

10003db0 <__pre_init_spinlock_set_extexclall>:
10003db0:	100007a5                                ....

10003db4 <__pre_init_runtime_init_per_core_irq_priorities>:
10003db4:	100007cd                                ....

10003db8 <__init_array_start>:
10003db8:	10003b09 	.word	0x10003b09

10003dbc <__frame_dummy_init_array_entry>:
10003dbc:	10000211                                ....

Disassembly of section .data:

20000110 <mutex_enter_block_until>:
20000110:	f04f 4150 	mov.w	r1, #3489660928	@ 0xd0000000
20000114:	e92d 41f0 	stmdb	sp!, {r4, r5, r6, r7, r8, lr}
20000118:	2700      	movs	r7, #0
2000011a:	4604      	mov	r4, r0
2000011c:	4616      	mov	r6, r2
2000011e:	461d      	mov	r5, r3
20000120:	f8d1 8000 	ldr.w	r8, [r1]
20000124:	e008      	b.n	20000138 <mutex_enter_block_until+0x28>
20000126:	e8c1 7f8f 	stlb	r7, [r1]
2000012a:	f38c 8810 	msr	PRIMASK, ip
2000012e:	4630      	mov	r0, r6
20000130:	4629      	mov	r1, r5
20000132:	f000 fff1 	bl	20001118 <__best_effort_wfe_or_timeout_veneer>
20000136:	b9e8      	cbnz	r0, 20000174 <mutex_enter_block_until+0x64>
20000138:	6821      	ldr	r1, [r4, #0]
2000013a:	f3ef 8c10 	mrs	ip, PRIMASK
2000013e:	b672      	cpsid	i
20000140:	e8d1 2fcf 	ldaexb	r2, [r1]
20000144:	2301      	movs	r3, #1
20000146:	2a00      	cmp	r2, #0
20000148:	d1fa      	bne.n	20000140 <mutex_enter_block_until+0x30>
2000014a:	e8c1 3f42 	strexb	r2, r3, [r1]
2000014e:	2a00      	cmp	r2, #0
20000150:	d1f6      	bne.n	20000140 <mutex_enter_block_until+0x30>
20000152:	f3bf 8f5f 	dmb	sy
20000156:	f994 3004 	ldrsb.w	r3, [r4, #4]
2000015a:	6821      	ldr	r1, [r4, #0]
2000015c:	2b00      	cmp	r3, #0
2000015e:	dae2      	bge.n	20000126 <mutex_enter_block_until+0x16>
20000160:	2300      	movs	r3, #0
20000162:	f884 8004 	strb.w	r8, [r4, #4]
20000166:	e8c1 3f8f 	stlb	r3, [r1]
2000016a:	f38c 8810 	msr	PRIMASK, ip
2000016e:	2001      	movs	r0, #1
20000170:	e8bd 81f0 	ldmia.w	sp!, {r4, r5, r6, r7, r8, pc}
20000174:	2000      	movs	r0, #0
20000176:	e8bd 81f0 	ldmia.w	sp!, {r4, r5, r6, r7, r8, pc}
2000017a:	bf00      	nop

2000017c <mutex_try_enter_block_until>:
2000017c:	b530      	push	{r4, r5, lr}
2000017e:	6804      	ldr	r4, [r0, #0]
20000180:	f3ef 8c10 	mrs	ip, PRIMASK
20000184:	b672      	cpsid	i
20000186:	e8d4 efcf 	ldaexb	lr, [r4]
2000018a:	2501      	movs	r5, #1
2000018c:	f1be 0f00 	cmp.w	lr, #0
20000190:	d1f9      	bne.n	20000186 <mutex_try_enter_block_until+0xa>
20000192:	e8c4 5f4e 	strexb	lr, r5, [r4]
20000196:	f1be 0f00 	cmp.w	lr, #0
2000019a:	d1f4      	bne.n	20000186 <mutex_try_enter_block_until+0xa>
2000019c:	f3bf 8f5f 	dmb	sy
200001a0:	f990 4004 	ldrsb.w	r4, [r0, #4]
200001a4:	6805      	ldr	r5, [r0, #0]
200001a6:	2c00      	cmp	r4, #0
200001a8:	db10      	blt.n	200001cc <mutex_try_enter_block_until+0x50>
200001aa:	2100      	movs	r1, #0
200001ac:	e8c5 1f8f 	stlb	r1, [r5]
200001b0:	f38c 8810 	msr	PRIMASK, ip
200001b4:	f04f 4550 	mov.w	r5, #3489660928	@ 0xd0000000
200001b8:	f995 5000 	ldrsb.w	r5, [r5]
200001bc:	42a5      	cmp	r5, r4
200001be:	d101      	bne.n	200001c4 <mutex_try_enter_block_until+0x48>
200001c0:	4608      	mov	r0, r1
200001c2:	bd30      	pop	{r4, r5, pc}
200001c4:	e8bd 4030 	ldmia.w	sp!, {r4, r5, lr}
200001c8:	f7ff bfa2 	b.w	20000110 <mutex_enter_block_until>
200001cc:	f04f 4250 	mov.w	r2, #3489660928	@ 0xd0000000
200001d0:	6812      	ldr	r2, [r2, #0]
200001d2:	2300      	movs	r3, #0
200001d4:	7102      	strb	r2, [r0, #4]
200001d6:	e8c5 3f8f 	stlb	r3, [r5]
200001da:	f38c 8810 	msr	PRIMASK, ip
200001de:	2001      	movs	r0, #1
200001e0:	bd30      	pop	{r4, r5, pc}
200001e2:	bf00      	nop

200001e4 <mutex_enter_timeout_ms>:
200001e4:	b570      	push	{r4, r5, r6, lr}
200001e6:	4605      	mov	r5, r0
200001e8:	460c      	mov	r4, r1
200001ea:	f000 ff8d 	bl	20001108 <__time_us_64_veneer>
200001ee:	4602      	mov	r2, r0
200001f0:	460b      	mov	r3, r1
200001f2:	f44f 707a 	mov.w	r0, #1000	@ 0x3e8
200001f6:	f04f 3eff 	mov.w	lr, #4294967295
200001fa:	f06f 4c00 	mvn.w	ip, #2147483648	@ 0x80000000
200001fe:	fbe4 2300 	umlal	r2, r3, r4, r0
20000202:	4596      	cmp	lr, r2
20000204:	eb7c 0103 	sbcs.w	r1, ip, r3
20000208:	bf38      	it	cc
2000020a:	4672      	movcc	r2, lr
2000020c:	4628      	mov	r0, r5
2000020e:	e8bd 4070 	ldmia.w	sp!, {r4, r5, r6, lr}
20000212:	bf38      	it	cc
20000214:	4663      	movcc	r3, ip
20000216:	f7ff bf7b 	b.w	20000110 <mutex_enter_block_until>
2000021a:	bf00      	nop

2000021c <mutex_exit>:
2000021c:	6803      	ldr	r3, [r0, #0]
2000021e:	f3ef 8210 	mrs	r2, PRIMASK
20000222:	b672      	cpsid	i
20000224:	e8d3 cfcf 	ldaexb	ip, [r3]
20000228:	2101      	movs	r1, #1
2000022a:	f1bc 0f00 	cmp.w	ip, #0
2000022e:	d1f9      	bne.n	20000224 <mutex_exit+0x8>
20000230:	e8c3 1f4c 	strexb	ip, r1, [r3]
20000234:	f1bc 0f00 	cmp.w	ip, #0
20000238:	d1f4      	bne.n	20000224 <mutex_exit+0x8>
2000023a:	f3bf 8f5f 	dmb	sy
2000023e:	f04f 0cff 	mov.w	ip, #255	@ 0xff
20000242:	2300      	movs	r3, #0
20000244:	6801      	ldr	r1, [r0, #0]
20000246:	f880 c004 	strb.w	ip, [r0, #4]
2000024a:	e8c1 3f8f 	stlb	r3, [r1]
2000024e:	f382 8810 	msr	PRIMASK, r2
20000252:	bf40      	sev
20000254:	4770      	bx	lr
20000256:	bf00      	nop

20000258 <reset_non_control_endpoints>:
20000258:	2100      	movs	r1, #0
2000025a:	b508      	push	{r3, lr}
2000025c:	4b13      	ldr	r3, [pc, #76]	@ (200002ac <reset_non_control_endpoints+0x54>)
2000025e:	f44f 7270 	mov.w	r2, #960	@ 0x3c0
20000262:	6099      	str	r1, [r3, #8]
20000264:	4812      	ldr	r0, [pc, #72]	@ (200002b0 <reset_non_control_endpoints+0x58>)
20000266:	60d9      	str	r1, [r3, #12]
20000268:	6119      	str	r1, [r3, #16]
2000026a:	6159      	str	r1, [r3, #20]
2000026c:	6199      	str	r1, [r3, #24]
2000026e:	61d9      	str	r1, [r3, #28]
20000270:	6219      	str	r1, [r3, #32]
20000272:	6259      	str	r1, [r3, #36]	@ 0x24
20000274:	6299      	str	r1, [r3, #40]	@ 0x28
20000276:	62d9      	str	r1, [r3, #44]	@ 0x2c
20000278:	6319      	str	r1, [r3, #48]	@ 0x30
2000027a:	6359      	str	r1, [r3, #52]	@ 0x34
2000027c:	6399      	str	r1, [r3, #56]	@ 0x38
2000027e:	63d9      	str	r1, [r3, #60]	@ 0x3c
20000280:	6419      	str	r1, [r3, #64]	@ 0x40
20000282:	6459      	str	r1, [r3, #68]	@ 0x44
20000284:	6499      	str	r1, [r3, #72]	@ 0x48
20000286:	64d9      	str	r1, [r3, #76]	@ 0x4c
20000288:	6519      	str	r1, [r3, #80]	@ 0x50
2000028a:	6559      	str	r1, [r3, #84]	@ 0x54
2000028c:	6599      	str	r1, [r3, #88]	@ 0x58
2000028e:	65d9      	str	r1, [r3, #92]	@ 0x5c
20000290:	6619      	str	r1, [r3, #96]	@ 0x60
20000292:	6659      	str	r1, [r3, #100]	@ 0x64
20000294:	6699      	str	r1, [r3, #104]	@ 0x68
20000296:	66d9      	str	r1, [r3, #108]	@ 0x6c
20000298:	6719      	str	r1, [r3, #112]	@ 0x70
2000029a:	6759      	str	r1, [r3, #116]	@ 0x74
2000029c:	6799      	str	r1, [r3, #120]	@ 0x78
2000029e:	67d9      	str	r1, [r3, #124]	@ 0x7c
200002a0:	f000 ff2e 	bl	20001100 <__memset_veneer>
200002a4:	4b03      	ldr	r3, [pc, #12]	@ (200002b4 <reset_non_control_endpoints+0x5c>)
200002a6:	4a04      	ldr	r2, [pc, #16]	@ (200002b8 <reset_non_control_endpoints+0x60>)
200002a8:	601a      	str	r2, [r3, #0]
200002aa:	bd08      	pop	{r3, pc}
200002ac:	50100000 	.word	0x50100000
200002b0:	200015e4 	.word	0x200015e4
200002b4:	200019a8 	.word	0x200019a8
200002b8:	50100180 	.word	0x50100180

200002bc <hw_handle_buff_status>:
200002bc:	e92d 4ff0 	stmdb	sp!, {r4, r5, r6, r7, r8, r9, sl, fp, lr}
200002c0:	4b1f      	ldr	r3, [pc, #124]	@ (20000340 <hw_handle_buff_status+0x84>)
200002c2:	b085      	sub	sp, #20
200002c4:	f8d3 a058 	ldr.w	sl, [r3, #88]	@ 0x58
200002c8:	f1ba 0f00 	cmp.w	sl, #0
200002cc:	d022      	beq.n	20000314 <hw_handle_buff_status+0x58>
200002ce:	2400      	movs	r4, #0
200002d0:	2501      	movs	r5, #1
200002d2:	f44f 69e0 	mov.w	r9, #1792	@ 0x700
200002d6:	f8df 8070 	ldr.w	r8, [pc, #112]	@ 20000348 <hw_handle_buff_status+0x8c>
200002da:	4f1a      	ldr	r7, [pc, #104]	@ (20000344 <hw_handle_buff_status+0x88>)
200002dc:	e001      	b.n	200002e2 <hw_handle_buff_status+0x26>
200002de:	2c20      	cmp	r4, #32
200002e0:	d018      	beq.n	20000314 <hw_handle_buff_status+0x58>
200002e2:	ea0a 0205 	and.w	r2, sl, r5
200002e6:	1c61      	adds	r1, r4, #1
200002e8:	4623      	mov	r3, r4
200002ea:	46ab      	mov	fp, r5
200002ec:	b2cc      	uxtb	r4, r1
200002ee:	006d      	lsls	r5, r5, #1
200002f0:	2a00      	cmp	r2, #0
200002f2:	d0f4      	beq.n	200002de <hw_handle_buff_status+0x22>
200002f4:	f004 0201 	and.w	r2, r4, #1
200002f8:	f003 06fe 	and.w	r6, r3, #254	@ 0xfe
200002fc:	4416      	add	r6, r2
200002fe:	eb07 1646 	add.w	r6, r7, r6, lsl #5
20000302:	4630      	mov	r0, r6
20000304:	f8c8 b058 	str.w	fp, [r8, #88]	@ 0x58
20000308:	f000 fc0a 	bl	20000b20 <hw_endpoint_xfer_continue>
2000030c:	b928      	cbnz	r0, 2000031a <hw_handle_buff_status+0x5e>
2000030e:	ea3a 0a0b 	bics.w	sl, sl, fp
20000312:	d1e4      	bne.n	200002de <hw_handle_buff_status+0x22>
20000314:	b005      	add	sp, #20
20000316:	e8bd 8ff0 	ldmia.w	sp!, {r4, r5, r6, r7, r8, r9, sl, fp, pc}
2000031a:	2300      	movs	r3, #0
2000031c:	f88d 3009 	strb.w	r3, [sp, #9]
20000320:	78b3      	ldrb	r3, [r6, #2]
20000322:	a801      	add	r0, sp, #4
20000324:	f88d 3008 	strb.w	r3, [sp, #8]
20000328:	8af3      	ldrh	r3, [r6, #22]
2000032a:	2101      	movs	r1, #1
2000032c:	f8ad 9004 	strh.w	r9, [sp, #4]
20000330:	9303      	str	r3, [sp, #12]
20000332:	f000 fc13 	bl	20000b5c <dcd_event_handler>
20000336:	4630      	mov	r0, r6
20000338:	f000 fb98 	bl	20000a6c <hw_endpoint_reset_transfer>
2000033c:	e7e7      	b.n	2000030e <hw_handle_buff_status+0x52>
2000033e:	bf00      	nop
20000340:	50110000 	.word	0x50110000
20000344:	200015a4 	.word	0x200015a4
20000348:	50113000 	.word	0x50113000

2000034c <dcd_rp2040_irq>:
2000034c:	b5f0      	push	{r4, r5, r6, r7, lr}
2000034e:	4bbb      	ldr	r3, [pc, #748]	@ (2000063c <dcd_rp2040_irq+0x2f0>)
20000350:	b085      	sub	sp, #20
20000352:	f8d3 5098 	ldr.w	r5, [r3, #152]	@ 0x98
20000356:	f415 3600 	ands.w	r6, r5, #131072	@ 0x20000
2000035a:	d074      	beq.n	20000446 <dcd_rp2040_irq+0xfa>
2000035c:	4bb8      	ldr	r3, [pc, #736]	@ (20000640 <dcd_rp2040_irq+0x2f4>)
2000035e:	4cb9      	ldr	r4, [pc, #740]	@ (20000644 <dcd_rp2040_irq+0x2f8>)
20000360:	6a99      	ldr	r1, [r3, #40]	@ 0x28
20000362:	f894 303b 	ldrb.w	r3, [r4, #59]	@ 0x3b
20000366:	4ab8      	ldr	r2, [pc, #736]	@ (20000648 <dcd_rp2040_irq+0x2fc>)
20000368:	2b02      	cmp	r3, #2
2000036a:	6011      	str	r1, [r2, #0]
2000036c:	f000 80d4 	beq.w	20000518 <dcd_rp2040_irq+0x1cc>
20000370:	2600      	movs	r6, #0
20000372:	f894 307b 	ldrb.w	r3, [r4, #123]	@ 0x7b
20000376:	2b02      	cmp	r3, #2
20000378:	f000 813b 	beq.w	200005f2 <dcd_rp2040_irq+0x2a6>
2000037c:	f894 30bb 	ldrb.w	r3, [r4, #187]	@ 0xbb
20000380:	2b02      	cmp	r3, #2
20000382:	f000 817d 	beq.w	20000680 <dcd_rp2040_irq+0x334>
20000386:	f894 30fb 	ldrb.w	r3, [r4, #251]	@ 0xfb
2000038a:	2b02      	cmp	r3, #2
2000038c:	f000 816c 	beq.w	20000668 <dcd_rp2040_irq+0x31c>
20000390:	f894 313b 	ldrb.w	r3, [r4, #315]	@ 0x13b
20000394:	2b02      	cmp	r3, #2
20000396:	f000 8144 	beq.w	20000622 <dcd_rp2040_irq+0x2d6>
2000039a:	f894 317b 	ldrb.w	r3, [r4, #379]	@ 0x17b
2000039e:	2b02      	cmp	r3, #2
200003a0:	f000 8133 	beq.w	2000060a <dcd_rp2040_irq+0x2be>
200003a4:	f894 31bb 	ldrb.w	r3, [r4, #443]	@ 0x1bb
200003a8:	2b02      	cmp	r3, #2
200003aa:	f000 81b6 	beq.w	2000071a <dcd_rp2040_irq+0x3ce>
200003ae:	f894 31fb 	ldrb.w	r3, [r4, #507]	@ 0x1fb
200003b2:	2b02      	cmp	r3, #2
200003b4:	f000 81a6 	beq.w	20000704 <dcd_rp2040_irq+0x3b8>
200003b8:	f894 323b 	ldrb.w	r3, [r4, #571]	@ 0x23b
200003bc:	2b02      	cmp	r3, #2
200003be:	f000 8196 	beq.w	200006ee <dcd_rp2040_irq+0x3a2>
200003c2:	f894 327b 	ldrb.w	r3, [r4, #635]	@ 0x27b
200003c6:	2b02      	cmp	r3, #2
200003c8:	f000 8186 	beq.w	200006d8 <dcd_rp2040_irq+0x38c>
200003cc:	f894 32bb 	ldrb.w	r3, [r4, #699]	@ 0x2bb
200003d0:	2b02      	cmp	r3, #2
200003d2:	f000 8176 	beq.w	200006c2 <dcd_rp2040_irq+0x376>
200003d6:	f894 32fb 	ldrb.w	r3, [r4, #763]	@ 0x2fb
200003da:	2b02      	cmp	r3, #2
200003dc:	f000 8166 	beq.w	200006ac <dcd_rp2040_irq+0x360>
200003e0:	f894 333b 	ldrb.w	r3, [r4, #827]	@ 0x33b
200003e4:	2b02      	cmp	r3, #2
200003e6:	f000 8156 	beq.w	20000696 <dcd_rp2040_irq+0x34a>
200003ea:	f894 337b 	ldrb.w	r3, [r4, #891]	@ 0x37b
200003ee:	2b02      	cmp	r3, #2
200003f0:	f000 80a4 	beq.w	2000053c <dcd_rp2040_irq+0x1f0>
200003f4:	f894 33bb 	ldrb.w	r3, [r4, #955]	@ 0x3bb
200003f8:	2b02      	cmp	r3, #2
200003fa:	f000 8199 	beq.w	20000730 <dcd_rp2040_irq+0x3e4>
200003fe:	f894 33fb 	ldrb.w	r3, [r4, #1019]	@ 0x3fb
20000402:	2b02      	cmp	r3, #2
20000404:	f000 80b4 	beq.w	20000570 <dcd_rp2040_irq+0x224>
20000408:	b93e      	cbnz	r6, 2000041a <dcd_rp2040_irq+0xce>
2000040a:	4b90      	ldr	r3, [pc, #576]	@ (2000064c <dcd_rp2040_irq+0x300>)
2000040c:	781b      	ldrb	r3, [r3, #0]
2000040e:	b923      	cbnz	r3, 2000041a <dcd_rp2040_irq+0xce>
20000410:	f44f 3200 	mov.w	r2, #131072	@ 0x20000
20000414:	4b8e      	ldr	r3, [pc, #568]	@ (20000650 <dcd_rp2040_irq+0x304>)
20000416:	f8c3 2090 	str.w	r2, [r3, #144]	@ 0x90
2000041a:	f44f 7240 	mov.w	r2, #768	@ 0x300
2000041e:	4b87      	ldr	r3, [pc, #540]	@ (2000063c <dcd_rp2040_irq+0x2f0>)
20000420:	2101      	movs	r1, #1
20000422:	6c9b      	ldr	r3, [r3, #72]	@ 0x48
20000424:	a801      	add	r0, sp, #4
20000426:	f3c3 030a 	ubfx	r3, r3, #0, #11
2000042a:	f8ad 2004 	strh.w	r2, [sp, #4]
2000042e:	9302      	str	r3, [sp, #8]
20000430:	f000 fb94 	bl	20000b5c <dcd_event_handler>
20000434:	06ea      	lsls	r2, r5, #27
20000436:	f44f 3600 	mov.w	r6, #131072	@ 0x20000
2000043a:	4c86      	ldr	r4, [pc, #536]	@ (20000654 <dcd_rp2040_irq+0x308>)
2000043c:	d507      	bpl.n	2000044e <dcd_rp2040_irq+0x102>
2000043e:	f7ff ff3d 	bl	200002bc <hw_handle_buff_status>
20000442:	4626      	mov	r6, r4
20000444:	e003      	b.n	2000044e <dcd_rp2040_irq+0x102>
20000446:	06ea      	lsls	r2, r5, #27
20000448:	f04f 0410 	mov.w	r4, #16
2000044c:	d4f7      	bmi.n	2000043e <dcd_rp2040_irq+0xf2>
2000044e:	03eb      	lsls	r3, r5, #15
20000450:	d522      	bpl.n	20000498 <dcd_rp2040_irq+0x14c>
20000452:	4c7c      	ldr	r4, [pc, #496]	@ (20000644 <dcd_rp2040_irq+0x2f8>)
20000454:	f446 3680 	orr.w	r6, r6, #65536	@ 0x10000
20000458:	7ea3      	ldrb	r3, [r4, #26]
2000045a:	2b00      	cmp	r3, #0
2000045c:	f040 8099 	bne.w	20000592 <dcd_rp2040_irq+0x246>
20000460:	2301      	movs	r3, #1
20000462:	f894 203a 	ldrb.w	r2, [r4, #58]	@ 0x3a
20000466:	70e3      	strb	r3, [r4, #3]
20000468:	2a00      	cmp	r2, #0
2000046a:	f040 80ad 	bne.w	200005c8 <dcd_rp2040_irq+0x27c>
2000046e:	2301      	movs	r3, #1
20000470:	f44f 61c0 	mov.w	r1, #1536	@ 0x600
20000474:	4a78      	ldr	r2, [pc, #480]	@ (20000658 <dcd_rp2040_irq+0x30c>)
20000476:	f884 3023 	strb.w	r3, [r4, #35]	@ 0x23
2000047a:	f8ad 1004 	strh.w	r1, [sp, #4]
2000047e:	e892 0003 	ldmia.w	r2, {r0, r1}
20000482:	aa04      	add	r2, sp, #16
20000484:	e902 0003 	stmdb	r2, {r0, r1}
20000488:	4619      	mov	r1, r3
2000048a:	a801      	add	r0, sp, #4
2000048c:	f000 fb66 	bl	20000b5c <dcd_event_handler>
20000490:	f44f 3200 	mov.w	r2, #131072	@ 0x20000
20000494:	4b6e      	ldr	r3, [pc, #440]	@ (20000650 <dcd_rp2040_irq+0x304>)
20000496:	651a      	str	r2, [r3, #80]	@ 0x50
20000498:	04e9      	lsls	r1, r5, #19
2000049a:	d408      	bmi.n	200004ae <dcd_rp2040_irq+0x162>
2000049c:	046a      	lsls	r2, r5, #17
2000049e:	d41d      	bmi.n	200004dc <dcd_rp2040_irq+0x190>
200004a0:	042b      	lsls	r3, r5, #16
200004a2:	d42a      	bmi.n	200004fa <dcd_rp2040_irq+0x1ae>
200004a4:	42ae      	cmp	r6, r5
200004a6:	f040 81c5 	bne.w	20000834 <dcd_rp2040_irq+0x4e8>
200004aa:	b005      	add	sp, #20
200004ac:	bdf0      	pop	{r4, r5, r6, r7, pc}
200004ae:	2400      	movs	r4, #0
200004b0:	4b62      	ldr	r3, [pc, #392]	@ (2000063c <dcd_rp2040_irq+0x2f0>)
200004b2:	f446 5680 	orr.w	r6, r6, #4096	@ 0x1000
200004b6:	601c      	str	r4, [r3, #0]
200004b8:	f7ff fece 	bl	20000258 <reset_non_control_endpoints>
200004bc:	f44f 7380 	mov.w	r3, #256	@ 0x100
200004c0:	2101      	movs	r1, #1
200004c2:	a801      	add	r0, sp, #4
200004c4:	f8ad 3004 	strh.w	r3, [sp, #4]
200004c8:	f88d 4008 	strb.w	r4, [sp, #8]
200004cc:	f000 fb46 	bl	20000b5c <dcd_event_handler>
200004d0:	f44f 2200 	mov.w	r2, #524288	@ 0x80000
200004d4:	4b5e      	ldr	r3, [pc, #376]	@ (20000650 <dcd_rp2040_irq+0x304>)
200004d6:	651a      	str	r2, [r3, #80]	@ 0x50
200004d8:	046a      	lsls	r2, r5, #17
200004da:	d5e1      	bpl.n	200004a0 <dcd_rp2040_irq+0x154>
200004dc:	f44f 6380 	mov.w	r3, #1024	@ 0x400
200004e0:	2101      	movs	r1, #1
200004e2:	a801      	add	r0, sp, #4
200004e4:	f8ad 3004 	strh.w	r3, [sp, #4]
200004e8:	f000 fb38 	bl	20000b5c <dcd_event_handler>
200004ec:	2210      	movs	r2, #16
200004ee:	4b58      	ldr	r3, [pc, #352]	@ (20000650 <dcd_rp2040_irq+0x304>)
200004f0:	f446 4680 	orr.w	r6, r6, #16384	@ 0x4000
200004f4:	651a      	str	r2, [r3, #80]	@ 0x50
200004f6:	042b      	lsls	r3, r5, #16
200004f8:	d5d4      	bpl.n	200004a4 <dcd_rp2040_irq+0x158>
200004fa:	f44f 63a0 	mov.w	r3, #1280	@ 0x500
200004fe:	2101      	movs	r1, #1
20000500:	a801      	add	r0, sp, #4
20000502:	f8ad 3004 	strh.w	r3, [sp, #4]
20000506:	f000 fb29 	bl	20000b5c <dcd_event_handler>
2000050a:	f44f 6200 	mov.w	r2, #2048	@ 0x800
2000050e:	4b50      	ldr	r3, [pc, #320]	@ (20000650 <dcd_rp2040_irq+0x304>)
20000510:	f446 4600 	orr.w	r6, r6, #32768	@ 0x8000
20000514:	651a      	str	r2, [r3, #80]	@ 0x50
20000516:	e7c5      	b.n	200004a4 <dcd_rp2040_irq+0x158>
20000518:	f894 603a 	ldrb.w	r6, [r4, #58]	@ 0x3a
2000051c:	2e00      	cmp	r6, #0
2000051e:	f43f af28 	beq.w	20000372 <dcd_rp2040_irq+0x26>
20000522:	f894 303c 	ldrb.w	r3, [r4, #60]	@ 0x3c
20000526:	2b00      	cmp	r3, #0
20000528:	f43f af23 	beq.w	20000372 <dcd_rp2040_irq+0x26>
2000052c:	2300      	movs	r3, #0
2000052e:	f104 0020 	add.w	r0, r4, #32
20000532:	f884 303c 	strb.w	r3, [r4, #60]	@ 0x3c
20000536:	f000 fac1 	bl	20000abc <hw_endpoint_start_next_buffer>
2000053a:	e71a      	b.n	20000372 <dcd_rp2040_irq+0x26>
2000053c:	f894 737a 	ldrb.w	r7, [r4, #890]	@ 0x37a
20000540:	2f00      	cmp	r7, #0
20000542:	f43f af57 	beq.w	200003f4 <dcd_rp2040_irq+0xa8>
20000546:	f894 337c 	ldrb.w	r3, [r4, #892]	@ 0x37c
2000054a:	2b00      	cmp	r3, #0
2000054c:	f040 8164 	bne.w	20000818 <dcd_rp2040_irq+0x4cc>
20000550:	f894 33bb 	ldrb.w	r3, [r4, #955]	@ 0x3bb
20000554:	2b02      	cmp	r3, #2
20000556:	f040 80f4 	bne.w	20000742 <dcd_rp2040_irq+0x3f6>
2000055a:	f894 33ba 	ldrb.w	r3, [r4, #954]	@ 0x3ba
2000055e:	2b00      	cmp	r3, #0
20000560:	f040 80eb 	bne.w	2000073a <dcd_rp2040_irq+0x3ee>
20000564:	f894 33fb 	ldrb.w	r3, [r4, #1019]	@ 0x3fb
20000568:	2b02      	cmp	r3, #2
2000056a:	f47f af56 	bne.w	2000041a <dcd_rp2040_irq+0xce>
2000056e:	463e      	mov	r6, r7
20000570:	f894 33fa 	ldrb.w	r3, [r4, #1018]	@ 0x3fa
20000574:	2b00      	cmp	r3, #0
20000576:	f43f af47 	beq.w	20000408 <dcd_rp2040_irq+0xbc>
2000057a:	f894 33fc 	ldrb.w	r3, [r4, #1020]	@ 0x3fc
2000057e:	2b00      	cmp	r3, #0
20000580:	f43f af4b 	beq.w	2000041a <dcd_rp2040_irq+0xce>
20000584:	2300      	movs	r3, #0
20000586:	4835      	ldr	r0, [pc, #212]	@ (2000065c <dcd_rp2040_irq+0x310>)
20000588:	f884 33fc 	strb.w	r3, [r4, #1020]	@ 0x3fc
2000058c:	f000 fa96 	bl	20000abc <hw_endpoint_start_next_buffer>
20000590:	e743      	b.n	2000041a <dcd_rp2040_irq+0xce>
20000592:	2102      	movs	r1, #2
20000594:	4b32      	ldr	r3, [pc, #200]	@ (20000660 <dcd_rp2040_irq+0x314>)
20000596:	4a29      	ldr	r2, [pc, #164]	@ (2000063c <dcd_rp2040_irq+0x2f0>)
20000598:	6619      	str	r1, [r3, #96]	@ 0x60
2000059a:	6e53      	ldr	r3, [r2, #100]	@ 0x64
2000059c:	079f      	lsls	r7, r3, #30
2000059e:	d5fc      	bpl.n	2000059a <dcd_rp2040_irq+0x24e>
200005a0:	f44f 5240 	mov.w	r2, #12288	@ 0x3000
200005a4:	2100      	movs	r1, #0
200005a6:	4827      	ldr	r0, [pc, #156]	@ (20000644 <dcd_rp2040_irq+0x2f8>)
200005a8:	f000 fa66 	bl	20000a78 <_hw_endpoint_buffer_control_update32>
200005ac:	4825      	ldr	r0, [pc, #148]	@ (20000644 <dcd_rp2040_irq+0x2f8>)
200005ae:	f000 fa5d 	bl	20000a6c <hw_endpoint_reset_transfer>
200005b2:	2202      	movs	r2, #2
200005b4:	4b26      	ldr	r3, [pc, #152]	@ (20000650 <dcd_rp2040_irq+0x304>)
200005b6:	665a      	str	r2, [r3, #100]	@ 0x64
200005b8:	661a      	str	r2, [r3, #96]	@ 0x60
200005ba:	2301      	movs	r3, #1
200005bc:	f894 203a 	ldrb.w	r2, [r4, #58]	@ 0x3a
200005c0:	70e3      	strb	r3, [r4, #3]
200005c2:	2a00      	cmp	r2, #0
200005c4:	f43f af53 	beq.w	2000046e <dcd_rp2040_irq+0x122>
200005c8:	4a25      	ldr	r2, [pc, #148]	@ (20000660 <dcd_rp2040_irq+0x314>)
200005ca:	6613      	str	r3, [r2, #96]	@ 0x60
200005cc:	f5a2 5200 	sub.w	r2, r2, #8192	@ 0x2000
200005d0:	6e53      	ldr	r3, [r2, #100]	@ 0x64
200005d2:	07d8      	lsls	r0, r3, #31
200005d4:	d5fc      	bpl.n	200005d0 <dcd_rp2040_irq+0x284>
200005d6:	f44f 5240 	mov.w	r2, #12288	@ 0x3000
200005da:	2100      	movs	r1, #0
200005dc:	4821      	ldr	r0, [pc, #132]	@ (20000664 <dcd_rp2040_irq+0x318>)
200005de:	f000 fa4b 	bl	20000a78 <_hw_endpoint_buffer_control_update32>
200005e2:	4820      	ldr	r0, [pc, #128]	@ (20000664 <dcd_rp2040_irq+0x318>)
200005e4:	f000 fa42 	bl	20000a6c <hw_endpoint_reset_transfer>
200005e8:	2201      	movs	r2, #1
200005ea:	4b19      	ldr	r3, [pc, #100]	@ (20000650 <dcd_rp2040_irq+0x304>)
200005ec:	665a      	str	r2, [r3, #100]	@ 0x64
200005ee:	661a      	str	r2, [r3, #96]	@ 0x60
200005f0:	e73d      	b.n	2000046e <dcd_rp2040_irq+0x122>
200005f2:	f894 707a 	ldrb.w	r7, [r4, #122]	@ 0x7a
200005f6:	2f00      	cmp	r7, #0
200005f8:	f43f aec0 	beq.w	2000037c <dcd_rp2040_irq+0x30>
200005fc:	f894 307c 	ldrb.w	r3, [r4, #124]	@ 0x7c
20000600:	2b00      	cmp	r3, #0
20000602:	f040 8101 	bne.w	20000808 <dcd_rp2040_irq+0x4bc>
20000606:	463e      	mov	r6, r7
20000608:	e6b8      	b.n	2000037c <dcd_rp2040_irq+0x30>
2000060a:	f894 717a 	ldrb.w	r7, [r4, #378]	@ 0x17a
2000060e:	2f00      	cmp	r7, #0
20000610:	f43f aec8 	beq.w	200003a4 <dcd_rp2040_irq+0x58>
20000614:	f894 317c 	ldrb.w	r3, [r4, #380]	@ 0x17c
20000618:	2b00      	cmp	r3, #0
2000061a:	f040 80ed 	bne.w	200007f8 <dcd_rp2040_irq+0x4ac>
2000061e:	463e      	mov	r6, r7
20000620:	e6c0      	b.n	200003a4 <dcd_rp2040_irq+0x58>
20000622:	f894 713a 	ldrb.w	r7, [r4, #314]	@ 0x13a
20000626:	2f00      	cmp	r7, #0
20000628:	f43f aeb7 	beq.w	2000039a <dcd_rp2040_irq+0x4e>
2000062c:	f894 313c 	ldrb.w	r3, [r4, #316]	@ 0x13c
20000630:	2b00      	cmp	r3, #0
20000632:	f040 80d9 	bne.w	200007e8 <dcd_rp2040_irq+0x49c>
20000636:	463e      	mov	r6, r7
20000638:	e6af      	b.n	2000039a <dcd_rp2040_irq+0x4e>
2000063a:	bf00      	nop
2000063c:	50110000 	.word	0x50110000
20000640:	400b0000 	.word	0x400b0000
20000644:	200015a4 	.word	0x200015a4
20000648:	2000159c 	.word	0x2000159c
2000064c:	200019f1 	.word	0x200019f1
20000650:	50113000 	.word	0x50113000
20000654:	00020010 	.word	0x00020010
20000658:	50100000 	.word	0x50100000
2000065c:	20001984 	.word	0x20001984
20000660:	50112000 	.word	0x50112000
20000664:	200015c4 	.word	0x200015c4
20000668:	f894 70fa 	ldrb.w	r7, [r4, #250]	@ 0xfa
2000066c:	2f00      	cmp	r7, #0
2000066e:	f43f ae8f 	beq.w	20000390 <dcd_rp2040_irq+0x44>
20000672:	f894 30fc 	ldrb.w	r3, [r4, #252]	@ 0xfc
20000676:	2b00      	cmp	r3, #0
20000678:	f040 808e 	bne.w	20000798 <dcd_rp2040_irq+0x44c>
2000067c:	463e      	mov	r6, r7
2000067e:	e687      	b.n	20000390 <dcd_rp2040_irq+0x44>
20000680:	f894 70ba 	ldrb.w	r7, [r4, #186]	@ 0xba
20000684:	2f00      	cmp	r7, #0
20000686:	f43f ae7e 	beq.w	20000386 <dcd_rp2040_irq+0x3a>
2000068a:	f894 30bc 	ldrb.w	r3, [r4, #188]	@ 0xbc
2000068e:	2b00      	cmp	r3, #0
20000690:	d17a      	bne.n	20000788 <dcd_rp2040_irq+0x43c>
20000692:	463e      	mov	r6, r7
20000694:	e677      	b.n	20000386 <dcd_rp2040_irq+0x3a>
20000696:	f894 733a 	ldrb.w	r7, [r4, #826]	@ 0x33a
2000069a:	2f00      	cmp	r7, #0
2000069c:	f43f aea5 	beq.w	200003ea <dcd_rp2040_irq+0x9e>
200006a0:	f894 333c 	ldrb.w	r3, [r4, #828]	@ 0x33c
200006a4:	2b00      	cmp	r3, #0
200006a6:	d157      	bne.n	20000758 <dcd_rp2040_irq+0x40c>
200006a8:	463e      	mov	r6, r7
200006aa:	e69e      	b.n	200003ea <dcd_rp2040_irq+0x9e>
200006ac:	f894 72fa 	ldrb.w	r7, [r4, #762]	@ 0x2fa
200006b0:	2f00      	cmp	r7, #0
200006b2:	f43f ae95 	beq.w	200003e0 <dcd_rp2040_irq+0x94>
200006b6:	f894 32fc 	ldrb.w	r3, [r4, #764]	@ 0x2fc
200006ba:	2b00      	cmp	r3, #0
200006bc:	d15c      	bne.n	20000778 <dcd_rp2040_irq+0x42c>
200006be:	463e      	mov	r6, r7
200006c0:	e68e      	b.n	200003e0 <dcd_rp2040_irq+0x94>
200006c2:	f894 72ba 	ldrb.w	r7, [r4, #698]	@ 0x2ba
200006c6:	2f00      	cmp	r7, #0
200006c8:	f43f ae85 	beq.w	200003d6 <dcd_rp2040_irq+0x8a>
200006cc:	f894 32bc 	ldrb.w	r3, [r4, #700]	@ 0x2bc
200006d0:	2b00      	cmp	r3, #0
200006d2:	d149      	bne.n	20000768 <dcd_rp2040_irq+0x41c>
200006d4:	463e      	mov	r6, r7
200006d6:	e67e      	b.n	200003d6 <dcd_rp2040_irq+0x8a>
200006d8:	f894 727a 	ldrb.w	r7, [r4, #634]	@ 0x27a
200006dc:	2f00      	cmp	r7, #0
200006de:	f43f ae75 	beq.w	200003cc <dcd_rp2040_irq+0x80>
200006e2:	f894 327c 	ldrb.w	r3, [r4, #636]	@ 0x27c
200006e6:	2b00      	cmp	r3, #0
200006e8:	d176      	bne.n	200007d8 <dcd_rp2040_irq+0x48c>
200006ea:	463e      	mov	r6, r7
200006ec:	e66e      	b.n	200003cc <dcd_rp2040_irq+0x80>
200006ee:	f894 723a 	ldrb.w	r7, [r4, #570]	@ 0x23a
200006f2:	2f00      	cmp	r7, #0
200006f4:	f43f ae65 	beq.w	200003c2 <dcd_rp2040_irq+0x76>
200006f8:	f894 323c 	ldrb.w	r3, [r4, #572]	@ 0x23c
200006fc:	2b00      	cmp	r3, #0
200006fe:	d163      	bne.n	200007c8 <dcd_rp2040_irq+0x47c>
20000700:	463e      	mov	r6, r7
20000702:	e65e      	b.n	200003c2 <dcd_rp2040_irq+0x76>
20000704:	f894 71fa 	ldrb.w	r7, [r4, #506]	@ 0x1fa
20000708:	2f00      	cmp	r7, #0
2000070a:	f43f ae55 	beq.w	200003b8 <dcd_rp2040_irq+0x6c>
2000070e:	f894 31fc 	ldrb.w	r3, [r4, #508]	@ 0x1fc
20000712:	2b00      	cmp	r3, #0
20000714:	d150      	bne.n	200007b8 <dcd_rp2040_irq+0x46c>
20000716:	463e      	mov	r6, r7
20000718:	e64e      	b.n	200003b8 <dcd_rp2040_irq+0x6c>
2000071a:	f894 71ba 	ldrb.w	r7, [r4, #442]	@ 0x1ba
2000071e:	2f00      	cmp	r7, #0
20000720:	f43f ae45 	beq.w	200003ae <dcd_rp2040_irq+0x62>
20000724:	f894 31bc 	ldrb.w	r3, [r4, #444]	@ 0x1bc
20000728:	2b00      	cmp	r3, #0
2000072a:	d13d      	bne.n	200007a8 <dcd_rp2040_irq+0x45c>
2000072c:	463e      	mov	r6, r7
2000072e:	e63e      	b.n	200003ae <dcd_rp2040_irq+0x62>
20000730:	f894 33ba 	ldrb.w	r3, [r4, #954]	@ 0x3ba
20000734:	2b00      	cmp	r3, #0
20000736:	f43f ae62 	beq.w	200003fe <dcd_rp2040_irq+0xb2>
2000073a:	f894 33bc 	ldrb.w	r3, [r4, #956]	@ 0x3bc
2000073e:	2b00      	cmp	r3, #0
20000740:	d171      	bne.n	20000826 <dcd_rp2040_irq+0x4da>
20000742:	f894 33fb 	ldrb.w	r3, [r4, #1019]	@ 0x3fb
20000746:	2b02      	cmp	r3, #2
20000748:	f47f ae67 	bne.w	2000041a <dcd_rp2040_irq+0xce>
2000074c:	f894 33fa 	ldrb.w	r3, [r4, #1018]	@ 0x3fa
20000750:	2b00      	cmp	r3, #0
20000752:	f43f ae62 	beq.w	2000041a <dcd_rp2040_irq+0xce>
20000756:	e710      	b.n	2000057a <dcd_rp2040_irq+0x22e>
20000758:	2300      	movs	r3, #0
2000075a:	4839      	ldr	r0, [pc, #228]	@ (20000840 <dcd_rp2040_irq+0x4f4>)
2000075c:	f884 333c 	strb.w	r3, [r4, #828]	@ 0x33c
20000760:	463e      	mov	r6, r7
20000762:	f000 f9ab 	bl	20000abc <hw_endpoint_start_next_buffer>
20000766:	e640      	b.n	200003ea <dcd_rp2040_irq+0x9e>
20000768:	2300      	movs	r3, #0
2000076a:	4836      	ldr	r0, [pc, #216]	@ (20000844 <dcd_rp2040_irq+0x4f8>)
2000076c:	f884 32bc 	strb.w	r3, [r4, #700]	@ 0x2bc
20000770:	463e      	mov	r6, r7
20000772:	f000 f9a3 	bl	20000abc <hw_endpoint_start_next_buffer>
20000776:	e62e      	b.n	200003d6 <dcd_rp2040_irq+0x8a>
20000778:	2300      	movs	r3, #0
2000077a:	4833      	ldr	r0, [pc, #204]	@ (20000848 <dcd_rp2040_irq+0x4fc>)
2000077c:	f884 32fc 	strb.w	r3, [r4, #764]	@ 0x2fc
20000780:	463e      	mov	r6, r7
20000782:	f000 f99b 	bl	20000abc <hw_endpoint_start_next_buffer>
20000786:	e62b      	b.n	200003e0 <dcd_rp2040_irq+0x94>
20000788:	2300      	movs	r3, #0
2000078a:	4830      	ldr	r0, [pc, #192]	@ (2000084c <dcd_rp2040_irq+0x500>)
2000078c:	f884 30bc 	strb.w	r3, [r4, #188]	@ 0xbc
20000790:	463e      	mov	r6, r7
20000792:	f000 f993 	bl	20000abc <hw_endpoint_start_next_buffer>
20000796:	e5f6      	b.n	20000386 <dcd_rp2040_irq+0x3a>
20000798:	2300      	movs	r3, #0
2000079a:	482d      	ldr	r0, [pc, #180]	@ (20000850 <dcd_rp2040_irq+0x504>)
2000079c:	f884 30fc 	strb.w	r3, [r4, #252]	@ 0xfc
200007a0:	463e      	mov	r6, r7
200007a2:	f000 f98b 	bl	20000abc <hw_endpoint_start_next_buffer>
200007a6:	e5f3      	b.n	20000390 <dcd_rp2040_irq+0x44>
200007a8:	2300      	movs	r3, #0
200007aa:	482a      	ldr	r0, [pc, #168]	@ (20000854 <dcd_rp2040_irq+0x508>)
200007ac:	f884 31bc 	strb.w	r3, [r4, #444]	@ 0x1bc
200007b0:	463e      	mov	r6, r7
200007b2:	f000 f983 	bl	20000abc <hw_endpoint_start_next_buffer>
200007b6:	e5fa      	b.n	200003ae <dcd_rp2040_irq+0x62>
200007b8:	2300      	movs	r3, #0
200007ba:	4827      	ldr	r0, [pc, #156]	@ (20000858 <dcd_rp2040_irq+0x50c>)
200007bc:	f884 31fc 	strb.w	r3, [r4, #508]	@ 0x1fc
200007c0:	463e      	mov	r6, r7
200007c2:	f000 f97b 	bl	20000abc <hw_endpoint_start_next_buffer>
200007c6:	e5f7      	b.n	200003b8 <dcd_rp2040_irq+0x6c>
200007c8:	2300      	movs	r3, #0
200007ca:	4824      	ldr	r0, [pc, #144]	@ (2000085c <dcd_rp2040_irq+0x510>)
200007cc:	f884 323c 	strb.w	r3, [r4, #572]	@ 0x23c
200007d0:	463e      	mov	r6, r7
200007d2:	f000 f973 	bl	20000abc <hw_endpoint_start_next_buffer>
200007d6:	e5f4      	b.n	200003c2 <dcd_rp2040_irq+0x76>
200007d8:	2300      	movs	r3, #0
200007da:	4821      	ldr	r0, [pc, #132]	@ (20000860 <dcd_rp2040_irq+0x514>)
200007dc:	f884 327c 	strb.w	r3, [r4, #636]	@ 0x27c
200007e0:	463e      	mov	r6, r7
200007e2:	f000 f96b 	bl	20000abc <hw_endpoint_start_next_buffer>
200007e6:	e5f1      	b.n	200003cc <dcd_rp2040_irq+0x80>
200007e8:	2300      	movs	r3, #0
200007ea:	481e      	ldr	r0, [pc, #120]	@ (20000864 <dcd_rp2040_irq+0x518>)
200007ec:	f884 313c 	strb.w	r3, [r4, #316]	@ 0x13c
200007f0:	463e      	mov	r6, r7
200007f2:	f000 f963 	bl	20000abc <hw_endpoint_start_next_buffer>
200007f6:	e5d0      	b.n	2000039a <dcd_rp2040_irq+0x4e>
200007f8:	2300      	movs	r3, #0
200007fa:	481b      	ldr	r0, [pc, #108]	@ (20000868 <dcd_rp2040_irq+0x51c>)
200007fc:	f884 317c 	strb.w	r3, [r4, #380]	@ 0x17c
20000800:	463e      	mov	r6, r7
20000802:	f000 f95b 	bl	20000abc <hw_endpoint_start_next_buffer>
20000806:	e5cd      	b.n	200003a4 <dcd_rp2040_irq+0x58>
20000808:	2300      	movs	r3, #0
2000080a:	4818      	ldr	r0, [pc, #96]	@ (2000086c <dcd_rp2040_irq+0x520>)
2000080c:	f884 307c 	strb.w	r3, [r4, #124]	@ 0x7c
20000810:	463e      	mov	r6, r7
20000812:	f000 f953 	bl	20000abc <hw_endpoint_start_next_buffer>
20000816:	e5b1      	b.n	2000037c <dcd_rp2040_irq+0x30>
20000818:	2300      	movs	r3, #0
2000081a:	4815      	ldr	r0, [pc, #84]	@ (20000870 <dcd_rp2040_irq+0x524>)
2000081c:	f884 337c 	strb.w	r3, [r4, #892]	@ 0x37c
20000820:	f000 f94c 	bl	20000abc <hw_endpoint_start_next_buffer>
20000824:	e694      	b.n	20000550 <dcd_rp2040_irq+0x204>
20000826:	2300      	movs	r3, #0
20000828:	4812      	ldr	r0, [pc, #72]	@ (20000874 <dcd_rp2040_irq+0x528>)
2000082a:	f884 33bc 	strb.w	r3, [r4, #956]	@ 0x3bc
2000082e:	f000 f945 	bl	20000abc <hw_endpoint_start_next_buffer>
20000832:	e786      	b.n	20000742 <dcd_rp2040_irq+0x3f6>
20000834:	4810      	ldr	r0, [pc, #64]	@ (20000878 <dcd_rp2040_irq+0x52c>)
20000836:	ea86 0105 	eor.w	r1, r6, r5
2000083a:	f000 fc5d 	bl	200010f8 <__panic_veneer>
2000083e:	bf00      	nop
20000840:	200018c4 	.word	0x200018c4
20000844:	20001844 	.word	0x20001844
20000848:	20001884 	.word	0x20001884
2000084c:	20001644 	.word	0x20001644
20000850:	20001684 	.word	0x20001684
20000854:	20001744 	.word	0x20001744
20000858:	20001784 	.word	0x20001784
2000085c:	200017c4 	.word	0x200017c4
20000860:	20001804 	.word	0x20001804
20000864:	200016c4 	.word	0x200016c4
20000868:	20001704 	.word	0x20001704
2000086c:	20001604 	.word	0x20001604
20000870:	20001904 	.word	0x20001904
20000874:	20001944 	.word	0x20001944
20000878:	10003e84 	.word	0x10003e84

2000087c <prepare_ep_buffer>:
2000087c:	e92d 47f0 	stmdb	sp!, {r4, r5, r6, r7, r8, r9, sl, lr}
20000880:	8a84      	ldrh	r4, [r0, #20]
20000882:	8b05      	ldrh	r5, [r0, #24]
20000884:	78c2      	ldrb	r2, [r0, #3]
20000886:	42a5      	cmp	r5, r4
20000888:	bf28      	it	cs
2000088a:	4625      	movcs	r5, r4
2000088c:	1e17      	subs	r7, r2, #0
2000088e:	bf18      	it	ne
20000890:	2701      	movne	r7, #1
20000892:	1b64      	subs	r4, r4, r5
20000894:	7846      	ldrb	r6, [r0, #1]
20000896:	f082 0201 	eor.w	r2, r2, #1
2000089a:	b2a4      	uxth	r4, r4
2000089c:	4603      	mov	r3, r0
2000089e:	70c2      	strb	r2, [r0, #3]
200008a0:	8284      	strh	r4, [r0, #20]
200008a2:	f445 6080 	orr.w	r0, r5, #1024	@ 0x400
200008a6:	ea40 3047 	orr.w	r0, r0, r7, lsl #13
200008aa:	bba6      	cbnz	r6, 20000916 <prepare_ep_buffer+0x9a>
200008ac:	e9d3 2603 	ldrd	r2, r6, [r3, #12]
200008b0:	1e6f      	subs	r7, r5, #1
200008b2:	eb02 1e81 	add.w	lr, r2, r1, lsl #6
200008b6:	b355      	cbz	r5, 2000090e <prepare_ep_buffer+0x92>
200008b8:	2f05      	cmp	r7, #5
200008ba:	bf98      	it	ls
200008bc:	1c72      	addls	r2, r6, #1
200008be:	d931      	bls.n	20000924 <prepare_ep_buffer+0xa8>
200008c0:	eb02 1c81 	add.w	ip, r2, r1, lsl #6
200008c4:	1c72      	adds	r2, r6, #1
200008c6:	ebac 0402 	sub.w	r4, ip, r2
200008ca:	2c02      	cmp	r4, #2
200008cc:	d92a      	bls.n	20000924 <prepare_ep_buffer+0xa8>
200008ce:	4632      	mov	r2, r6
200008d0:	ea4f 0995 	mov.w	r9, r5, lsr #2
200008d4:	ea4f 0a89 	mov.w	sl, r9, lsl #2
200008d8:	eb06 0889 	add.w	r8, r6, r9, lsl #2
200008dc:	f852 4b04 	ldr.w	r4, [r2], #4
200008e0:	4542      	cmp	r2, r8
200008e2:	f84c 4b04 	str.w	r4, [ip], #4
200008e6:	d1f9      	bne.n	200008dc <prepare_ep_buffer+0x60>
200008e8:	4555      	cmp	r5, sl
200008ea:	eba7 070a 	sub.w	r7, r7, sl
200008ee:	eb0e 040a 	add.w	r4, lr, sl
200008f2:	d00a      	beq.n	2000090a <prepare_ep_buffer+0x8e>
200008f4:	f816 6029 	ldrb.w	r6, [r6, r9, lsl #2]
200008f8:	f80e 6029 	strb.w	r6, [lr, r9, lsl #2]
200008fc:	b12f      	cbz	r7, 2000090a <prepare_ep_buffer+0x8e>
200008fe:	7856      	ldrb	r6, [r2, #1]
20000900:	2f01      	cmp	r7, #1
20000902:	7066      	strb	r6, [r4, #1]
20000904:	d001      	beq.n	2000090a <prepare_ep_buffer+0x8e>
20000906:	7892      	ldrb	r2, [r2, #2]
20000908:	70a2      	strb	r2, [r4, #2]
2000090a:	691e      	ldr	r6, [r3, #16]
2000090c:	8a9c      	ldrh	r4, [r3, #20]
2000090e:	442e      	add	r6, r5
20000910:	611e      	str	r6, [r3, #16]
20000912:	f440 4000 	orr.w	r0, r0, #32768	@ 0x8000
20000916:	b90c      	cbnz	r4, 2000091c <prepare_ep_buffer+0xa0>
20000918:	f440 4080 	orr.w	r0, r0, #16384	@ 0x4000
2000091c:	b101      	cbz	r1, 20000920 <prepare_ep_buffer+0xa4>
2000091e:	0400      	lsls	r0, r0, #16
20000920:	e8bd 87f0 	ldmia.w	sp!, {r4, r5, r6, r7, r8, r9, sl, pc}
20000924:	f10e 3eff 	add.w	lr, lr, #4294967295
20000928:	442e      	add	r6, r5
2000092a:	e000      	b.n	2000092e <prepare_ep_buffer+0xb2>
2000092c:	3201      	adds	r2, #1
2000092e:	f812 4c01 	ldrb.w	r4, [r2, #-1]
20000932:	42b2      	cmp	r2, r6
20000934:	f80e 4f01 	strb.w	r4, [lr, #1]!
20000938:	d1f8      	bne.n	2000092c <prepare_ep_buffer+0xb0>
2000093a:	e7e6      	b.n	2000090a <prepare_ep_buffer+0x8e>

2000093c <sync_ep_buffer>:
2000093c:	6883      	ldr	r3, [r0, #8]
2000093e:	4602      	mov	r2, r0
20000940:	6818      	ldr	r0, [r3, #0]
20000942:	b101      	cbz	r1, 20000946 <sync_ep_buffer+0xa>
20000944:	0c00      	lsrs	r0, r0, #16
20000946:	7853      	ldrb	r3, [r2, #1]
20000948:	f3c0 0009 	ubfx	r0, r0, #0, #10
2000094c:	2b00      	cmp	r3, #0
2000094e:	d03c      	beq.n	200009ca <sync_ep_buffer+0x8e>
20000950:	e92d 41f0 	stmdb	sp!, {r4, r5, r6, r7, r8, lr}
20000954:	e9d2 3403 	ldrd	r3, r4, [r2, #12]
20000958:	1e46      	subs	r6, r0, #1
2000095a:	eb03 1e81 	add.w	lr, r3, r1, lsl #6
2000095e:	b340      	cbz	r0, 200009b2 <sync_ep_buffer+0x76>
20000960:	2e05      	cmp	r6, #5
20000962:	d93b      	bls.n	200009dc <sync_ep_buffer+0xa0>
20000964:	0189      	lsls	r1, r1, #6
20000966:	1c4d      	adds	r5, r1, #1
20000968:	441d      	add	r5, r3
2000096a:	1b65      	subs	r5, r4, r5
2000096c:	2d02      	cmp	r5, #2
2000096e:	d935      	bls.n	200009dc <sync_ep_buffer+0xa0>
20000970:	4673      	mov	r3, lr
20000972:	4621      	mov	r1, r4
20000974:	f400 777f 	and.w	r7, r0, #1020	@ 0x3fc
20000978:	ea4f 0890 	mov.w	r8, r0, lsr #2
2000097c:	18fd      	adds	r5, r7, r3
2000097e:	f853 cb04 	ldr.w	ip, [r3], #4
20000982:	42ab      	cmp	r3, r5
20000984:	f841 cb04 	str.w	ip, [r1], #4
20000988:	d1f9      	bne.n	2000097e <sync_ep_buffer+0x42>
2000098a:	42b8      	cmp	r0, r7
2000098c:	eba6 0607 	sub.w	r6, r6, r7
20000990:	eb04 0307 	add.w	r3, r4, r7
20000994:	eb0e 0107 	add.w	r1, lr, r7
20000998:	d00a      	beq.n	200009b0 <sync_ep_buffer+0x74>
2000099a:	f81e 5028 	ldrb.w	r5, [lr, r8, lsl #2]
2000099e:	f804 5028 	strb.w	r5, [r4, r8, lsl #2]
200009a2:	b12e      	cbz	r6, 200009b0 <sync_ep_buffer+0x74>
200009a4:	784c      	ldrb	r4, [r1, #1]
200009a6:	2e01      	cmp	r6, #1
200009a8:	705c      	strb	r4, [r3, #1]
200009aa:	d001      	beq.n	200009b0 <sync_ep_buffer+0x74>
200009ac:	7889      	ldrb	r1, [r1, #2]
200009ae:	7099      	strb	r1, [r3, #2]
200009b0:	6914      	ldr	r4, [r2, #16]
200009b2:	8ad3      	ldrh	r3, [r2, #22]
200009b4:	4404      	add	r4, r0
200009b6:	4403      	add	r3, r0
200009b8:	82d3      	strh	r3, [r2, #22]
200009ba:	8b13      	ldrh	r3, [r2, #24]
200009bc:	6114      	str	r4, [r2, #16]
200009be:	4283      	cmp	r3, r0
200009c0:	bf84      	itt	hi
200009c2:	2300      	movhi	r3, #0
200009c4:	8293      	strhhi	r3, [r2, #20]
200009c6:	e8bd 81f0 	ldmia.w	sp!, {r4, r5, r6, r7, r8, pc}
200009ca:	8ad3      	ldrh	r3, [r2, #22]
200009cc:	4403      	add	r3, r0
200009ce:	82d3      	strh	r3, [r2, #22]
200009d0:	8b13      	ldrh	r3, [r2, #24]
200009d2:	4283      	cmp	r3, r0
200009d4:	bf84      	itt	hi
200009d6:	2300      	movhi	r3, #0
200009d8:	8293      	strhhi	r3, [r2, #20]
200009da:	4770      	bx	lr
200009dc:	3c01      	subs	r4, #1
200009de:	eb0e 0100 	add.w	r1, lr, r0
200009e2:	f81e 3b01 	ldrb.w	r3, [lr], #1
200009e6:	4571      	cmp	r1, lr
200009e8:	f804 3f01 	strb.w	r3, [r4, #1]!
200009ec:	d1f9      	bne.n	200009e2 <sync_ep_buffer+0xa6>
200009ee:	e7df      	b.n	200009b0 <sync_ep_buffer+0x74>

200009f0 <_hw_endpoint_xfer_sync>:
200009f0:	b510      	push	{r4, lr}
200009f2:	4604      	mov	r4, r0
200009f4:	6883      	ldr	r3, [r0, #8]
200009f6:	2100      	movs	r1, #0
200009f8:	681b      	ldr	r3, [r3, #0]
200009fa:	f7ff ff9f 	bl	2000093c <sync_ep_buffer>
200009fe:	6863      	ldr	r3, [r4, #4]
20000a00:	681b      	ldr	r3, [r3, #0]
20000a02:	005b      	lsls	r3, r3, #1
20000a04:	d502      	bpl.n	20000a0c <_hw_endpoint_xfer_sync+0x1c>
20000a06:	8b23      	ldrh	r3, [r4, #24]
20000a08:	4283      	cmp	r3, r0
20000a0a:	d000      	beq.n	20000a0e <_hw_endpoint_xfer_sync+0x1e>
20000a0c:	bd10      	pop	{r4, pc}
20000a0e:	4620      	mov	r0, r4
20000a10:	e8bd 4010 	ldmia.w	sp!, {r4, lr}
20000a14:	2101      	movs	r1, #1
20000a16:	f7ff bf91 	b.w	2000093c <sync_ep_buffer>
20000a1a:	bf00      	nop

20000a1c <e15_is_bulkin_ep>:
20000a1c:	4b08      	ldr	r3, [pc, #32]	@ (20000a40 <e15_is_bulkin_ep+0x24>)
20000a1e:	6c1b      	ldr	r3, [r3, #64]	@ 0x40
20000a20:	f013 0302 	ands.w	r3, r3, #2
20000a24:	d102      	bne.n	20000a2c <e15_is_bulkin_ep+0x10>
20000a26:	7882      	ldrb	r2, [r0, #2]
20000a28:	09d2      	lsrs	r2, r2, #7
20000a2a:	d101      	bne.n	20000a30 <e15_is_bulkin_ep+0x14>
20000a2c:	2000      	movs	r0, #0
20000a2e:	4770      	bx	lr
20000a30:	7ec0      	ldrb	r0, [r0, #27]
20000a32:	f1a0 0002 	sub.w	r0, r0, #2
20000a36:	fab0 f080 	clz	r0, r0
20000a3a:	0940      	lsrs	r0, r0, #5
20000a3c:	4770      	bx	lr
20000a3e:	bf00      	nop
20000a40:	50110000 	.word	0x50110000

20000a44 <e15_is_critical_frame_period>:
20000a44:	b508      	push	{r3, lr}
20000a46:	f7ff ffe9 	bl	20000a1c <e15_is_bulkin_ep>
20000a4a:	b150      	cbz	r0, 20000a62 <e15_is_critical_frame_period+0x1e>
20000a4c:	4a05      	ldr	r2, [pc, #20]	@ (20000a64 <e15_is_critical_frame_period+0x20>)
20000a4e:	4b06      	ldr	r3, [pc, #24]	@ (20000a68 <e15_is_critical_frame_period+0x24>)
20000a50:	6a90      	ldr	r0, [r2, #40]	@ 0x28
20000a52:	681b      	ldr	r3, [r3, #0]
20000a54:	f5a0 7048 	sub.w	r0, r0, #800	@ 0x320
20000a58:	1ac0      	subs	r0, r0, r3
20000a5a:	28c6      	cmp	r0, #198	@ 0xc6
20000a5c:	bf8c      	ite	hi
20000a5e:	2000      	movhi	r0, #0
20000a60:	2001      	movls	r0, #1
20000a62:	bd08      	pop	{r3, pc}
20000a64:	400b0000 	.word	0x400b0000
20000a68:	2000159c 	.word	0x2000159c

20000a6c <hw_endpoint_reset_transfer>:
20000a6c:	2300      	movs	r3, #0
20000a6e:	e9c0 3304 	strd	r3, r3, [r0, #16]
20000a72:	7683      	strb	r3, [r0, #26]
20000a74:	4770      	bx	lr
20000a76:	bf00      	nop

20000a78 <_hw_endpoint_buffer_control_update32>:
20000a78:	b510      	push	{r4, lr}
20000a7a:	6883      	ldr	r3, [r0, #8]
20000a7c:	b109      	cbz	r1, 20000a82 <_hw_endpoint_buffer_control_update32+0xa>
20000a7e:	681c      	ldr	r4, [r3, #0]
20000a80:	4021      	ands	r1, r4
20000a82:	b182      	cbz	r2, 20000aa6 <_hw_endpoint_buffer_control_update32+0x2e>
20000a84:	4311      	orrs	r1, r2
20000a86:	0552      	lsls	r2, r2, #21
20000a88:	d50d      	bpl.n	20000aa6 <_hw_endpoint_buffer_control_update32+0x2e>
20000a8a:	681a      	ldr	r2, [r3, #0]
20000a8c:	0554      	lsls	r4, r2, #21
20000a8e:	d40c      	bmi.n	20000aaa <_hw_endpoint_buffer_control_update32+0x32>
20000a90:	4a08      	ldr	r2, [pc, #32]	@ (20000ab4 <_hw_endpoint_buffer_control_update32+0x3c>)
20000a92:	f421 6480 	bic.w	r4, r1, #1024	@ 0x400
20000a96:	601c      	str	r4, [r3, #0]
20000a98:	6c12      	ldr	r2, [r2, #64]	@ 0x40
20000a9a:	0792      	lsls	r2, r2, #30
20000a9c:	d403      	bmi.n	20000aa6 <_hw_endpoint_buffer_control_update32+0x2e>
20000a9e:	230c      	movs	r3, #12
20000aa0:	3b03      	subs	r3, #3
20000aa2:	d2fd      	bcs.n	20000aa0 <_hw_endpoint_buffer_control_update32+0x28>
20000aa4:	6883      	ldr	r3, [r0, #8]
20000aa6:	6019      	str	r1, [r3, #0]
20000aa8:	bd10      	pop	{r4, pc}
20000aaa:	7881      	ldrb	r1, [r0, #2]
20000aac:	4802      	ldr	r0, [pc, #8]	@ (20000ab8 <_hw_endpoint_buffer_control_update32+0x40>)
20000aae:	f000 fb23 	bl	200010f8 <__panic_veneer>
20000ab2:	bf00      	nop
20000ab4:	50110000 	.word	0x50110000
20000ab8:	10003e98 	.word	0x10003e98

20000abc <hw_endpoint_start_next_buffer>:
20000abc:	b530      	push	{r4, r5, lr}
20000abe:	6843      	ldr	r3, [r0, #4]
20000ac0:	2100      	movs	r1, #0
20000ac2:	b083      	sub	sp, #12
20000ac4:	4604      	mov	r4, r0
20000ac6:	681d      	ldr	r5, [r3, #0]
20000ac8:	f7ff fed8 	bl	2000087c <prepare_ep_buffer>
20000acc:	4b13      	ldr	r3, [pc, #76]	@ (20000b1c <hw_endpoint_start_next_buffer+0x60>)
20000ace:	f440 5280 	orr.w	r2, r0, #4096	@ 0x1000
20000ad2:	6c19      	ldr	r1, [r3, #64]	@ 0x40
20000ad4:	78a3      	ldrb	r3, [r4, #2]
20000ad6:	0789      	lsls	r1, r1, #30
20000ad8:	d50e      	bpl.n	20000af8 <hw_endpoint_start_next_buffer+0x3c>
20000ada:	065b      	lsls	r3, r3, #25
20000adc:	d00e      	beq.n	20000afc <hw_endpoint_start_next_buffer+0x40>
20000ade:	f025 45a0 	bic.w	r5, r5, #1342177280	@ 0x50000000
20000ae2:	f045 5500 	orr.w	r5, r5, #536870912	@ 0x20000000
20000ae6:	2100      	movs	r1, #0
20000ae8:	4620      	mov	r0, r4
20000aea:	6863      	ldr	r3, [r4, #4]
20000aec:	601d      	str	r5, [r3, #0]
20000aee:	b003      	add	sp, #12
20000af0:	e8bd 4030 	ldmia.w	sp!, {r4, r5, lr}
20000af4:	f7ff bfc0 	b.w	20000a78 <_hw_endpoint_buffer_control_update32>
20000af8:	09db      	lsrs	r3, r3, #7
20000afa:	d0f0      	beq.n	20000ade <hw_endpoint_start_next_buffer+0x22>
20000afc:	8aa3      	ldrh	r3, [r4, #20]
20000afe:	2b00      	cmp	r3, #0
20000b00:	d0ed      	beq.n	20000ade <hw_endpoint_start_next_buffer+0x22>
20000b02:	2101      	movs	r1, #1
20000b04:	4620      	mov	r0, r4
20000b06:	9201      	str	r2, [sp, #4]
20000b08:	f7ff feb8 	bl	2000087c <prepare_ep_buffer>
20000b0c:	9a01      	ldr	r2, [sp, #4]
20000b0e:	f025 5500 	bic.w	r5, r5, #536870912	@ 0x20000000
20000b12:	4302      	orrs	r2, r0
20000b14:	f045 45a0 	orr.w	r5, r5, #1342177280	@ 0x50000000
20000b18:	e7e5      	b.n	20000ae6 <hw_endpoint_start_next_buffer+0x2a>
20000b1a:	bf00      	nop
20000b1c:	50110000 	.word	0x50110000

20000b20 <hw_endpoint_xfer_continue>:
20000b20:	b538      	push	{r3, r4, r5, lr}
20000b22:	7e85      	ldrb	r5, [r0, #26]
20000b24:	4604      	mov	r4, r0
20000b26:	b195      	cbz	r5, 20000b4e <hw_endpoint_xfer_continue+0x2e>
20000b28:	f7ff ff62 	bl	200009f0 <_hw_endpoint_xfer_sync>
20000b2c:	8aa3      	ldrh	r3, [r4, #20]
20000b2e:	b90b      	cbnz	r3, 20000b34 <hw_endpoint_xfer_continue+0x14>
20000b30:	4628      	mov	r0, r5
20000b32:	bd38      	pop	{r3, r4, r5, pc}
20000b34:	4620      	mov	r0, r4
20000b36:	f7ff ff85 	bl	20000a44 <e15_is_critical_frame_period>
20000b3a:	b120      	cbz	r0, 20000b46 <hw_endpoint_xfer_continue+0x26>
20000b3c:	2301      	movs	r3, #1
20000b3e:	7723      	strb	r3, [r4, #28]
20000b40:	2500      	movs	r5, #0
20000b42:	4628      	mov	r0, r5
20000b44:	bd38      	pop	{r3, r4, r5, pc}
20000b46:	4620      	mov	r0, r4
20000b48:	f7ff ffb8 	bl	20000abc <hw_endpoint_start_next_buffer>
20000b4c:	e7f8      	b.n	20000b40 <hw_endpoint_xfer_continue+0x20>
20000b4e:	7881      	ldrb	r1, [r0, #2]
20000b50:	4801      	ldr	r0, [pc, #4]	@ (20000b58 <hw_endpoint_xfer_continue+0x38>)
20000b52:	f000 fad1 	bl	200010f8 <__panic_veneer>
20000b56:	bf00      	nop
20000b58:	10003eb8 	.word	0x10003eb8

20000b5c <dcd_event_handler>:
20000b5c:	e92d 43f0 	stmdb	sp!, {r4, r5, r6, r7, r8, r9, lr}
20000b60:	7843      	ldrb	r3, [r0, #1]
20000b62:	4604      	mov	r4, r0
20000b64:	3b02      	subs	r3, #2
20000b66:	460d      	mov	r5, r1
20000b68:	b085      	sub	sp, #20
20000b6a:	2b04      	cmp	r3, #4
20000b6c:	d813      	bhi.n	20000b96 <dcd_event_handler+0x3a>
20000b6e:	e8df f003 	tbb	[pc, r3]
20000b72:	4803      	.short	0x4803
20000b74:	7067      	.short	0x7067
20000b76:	42          	.byte	0x42
20000b77:	00          	.byte	0x00
20000b78:	2100      	movs	r1, #0
20000b7a:	4b78      	ldr	r3, [pc, #480]	@ (20000d5c <dcd_event_handler+0x200>)
20000b7c:	781a      	ldrb	r2, [r3, #0]
20000b7e:	f022 0201 	bic.w	r2, r2, #1
20000b82:	701a      	strb	r2, [r3, #0]
20000b84:	781a      	ldrb	r2, [r3, #0]
20000b86:	f022 0202 	bic.w	r2, r2, #2
20000b8a:	701a      	strb	r2, [r3, #0]
20000b8c:	7059      	strb	r1, [r3, #1]
20000b8e:	781a      	ldrb	r2, [r3, #0]
20000b90:	f361 0282 	bfi	r2, r1, #2, #1
20000b94:	701a      	strb	r2, [r3, #0]
20000b96:	4b72      	ldr	r3, [pc, #456]	@ (20000d60 <dcd_event_handler+0x204>)
20000b98:	681e      	ldr	r6, [r3, #0]
20000b9a:	6973      	ldr	r3, [r6, #20]
20000b9c:	f3ef 8210 	mrs	r2, PRIMASK
20000ba0:	b672      	cpsid	i
20000ba2:	e8d3 0fcf 	ldaexb	r0, [r3]
20000ba6:	2101      	movs	r1, #1
20000ba8:	2800      	cmp	r0, #0
20000baa:	d1fa      	bne.n	20000ba2 <dcd_event_handler+0x46>
20000bac:	e8c3 1f40 	strexb	r0, r1, [r3]
20000bb0:	2800      	cmp	r0, #0
20000bb2:	d1f6      	bne.n	20000ba2 <dcd_event_handler+0x46>
20000bb4:	f3bf 8f5f 	dmb	sy
20000bb8:	61b2      	str	r2, [r6, #24]
20000bba:	4621      	mov	r1, r4
20000bbc:	4630      	mov	r0, r6
20000bbe:	f000 faa7 	bl	20001110 <__tu_fifo_write_veneer>
20000bc2:	2300      	movs	r3, #0
20000bc4:	6972      	ldr	r2, [r6, #20]
20000bc6:	e8c2 3f8f 	stlb	r3, [r2]
20000bca:	69b3      	ldr	r3, [r6, #24]
20000bcc:	f383 8810 	msr	PRIMASK, r3
20000bd0:	b948      	cbnz	r0, 20000be6 <dcd_event_handler+0x8a>
20000bd2:	f04f 23e0 	mov.w	r3, #3758153728	@ 0xe000e000
20000bd6:	f8d3 3df0 	ldr.w	r3, [r3, #3568]	@ 0xdf0
20000bda:	07db      	lsls	r3, r3, #31
20000bdc:	d508      	bpl.n	20000bf0 <dcd_event_handler+0x94>
20000bde:	be00      	bkpt	0x0000
20000be0:	b005      	add	sp, #20
20000be2:	e8bd 83f0 	ldmia.w	sp!, {r4, r5, r6, r7, r8, r9, pc}
20000be6:	462a      	mov	r2, r5
20000be8:	7861      	ldrb	r1, [r4, #1]
20000bea:	7820      	ldrb	r0, [r4, #0]
20000bec:	f000 fa80 	bl	200010f0 <__tud_event_hook_cb_veneer>
20000bf0:	b005      	add	sp, #20
20000bf2:	e8bd 83f0 	ldmia.w	sp!, {r4, r5, r6, r7, r8, r9, pc}
20000bf6:	4a5b      	ldr	r2, [pc, #364]	@ (20000d64 <dcd_event_handler+0x208>)
20000bf8:	7813      	ldrb	r3, [r2, #0]
20000bfa:	3301      	adds	r3, #1
20000bfc:	b2db      	uxtb	r3, r3
20000bfe:	7013      	strb	r3, [r2, #0]
20000c00:	e7c9      	b.n	20000b96 <dcd_event_handler+0x3a>
20000c02:	f04f 0900 	mov.w	r9, #0
20000c06:	4e58      	ldr	r6, [pc, #352]	@ (20000d68 <dcd_event_handler+0x20c>)
20000c08:	464b      	mov	r3, r9
20000c0a:	7831      	ldrb	r1, [r6, #0]
20000c0c:	f8df 8160 	ldr.w	r8, [pc, #352]	@ 20000d70 <dcd_event_handler+0x214>
20000c10:	4f56      	ldr	r7, [pc, #344]	@ (20000d6c <dcd_event_handler+0x210>)
20000c12:	e00f      	b.n	20000c34 <dcd_event_handler+0xd8>
20000c14:	683a      	ldr	r2, [r7, #0]
20000c16:	eb12 1343 	adds.w	r3, r2, r3, lsl #5
20000c1a:	d005      	beq.n	20000c28 <dcd_event_handler+0xcc>
20000c1c:	69db      	ldr	r3, [r3, #28]
20000c1e:	b11b      	cbz	r3, 20000c28 <dcd_event_handler+0xcc>
20000c20:	6861      	ldr	r1, [r4, #4]
20000c22:	7820      	ldrb	r0, [r4, #0]
20000c24:	4798      	blx	r3
20000c26:	7831      	ldrb	r1, [r6, #0]
20000c28:	f109 0901 	add.w	r9, r9, #1
20000c2c:	fa5f f389 	uxtb.w	r3, r9
20000c30:	428b      	cmp	r3, r1
20000c32:	d817      	bhi.n	20000c64 <dcd_event_handler+0x108>
20000c34:	4299      	cmp	r1, r3
20000c36:	d8ed      	bhi.n	20000c14 <dcd_event_handler+0xb8>
20000c38:	1a5b      	subs	r3, r3, r1
20000c3a:	eb08 1343 	add.w	r3, r8, r3, lsl #5
20000c3e:	e7ed      	b.n	20000c1c <dcd_event_handler+0xc0>
20000c40:	4b46      	ldr	r3, [pc, #280]	@ (20000d5c <dcd_event_handler+0x200>)
20000c42:	781a      	ldrb	r2, [r3, #0]
20000c44:	07d7      	lsls	r7, r2, #31
20000c46:	d5d3      	bpl.n	20000bf0 <dcd_event_handler+0x94>
20000c48:	781a      	ldrb	r2, [r3, #0]
20000c4a:	f042 0204 	orr.w	r2, r2, #4
20000c4e:	701a      	strb	r2, [r3, #0]
20000c50:	e7a1      	b.n	20000b96 <dcd_event_handler+0x3a>
20000c52:	4b42      	ldr	r3, [pc, #264]	@ (20000d5c <dcd_event_handler+0x200>)
20000c54:	781a      	ldrb	r2, [r3, #0]
20000c56:	07d6      	lsls	r6, r2, #31
20000c58:	d5ca      	bpl.n	20000bf0 <dcd_event_handler+0x94>
20000c5a:	781a      	ldrb	r2, [r3, #0]
20000c5c:	f022 0204 	bic.w	r2, r2, #4
20000c60:	701a      	strb	r2, [r3, #0]
20000c62:	e798      	b.n	20000b96 <dcd_event_handler+0x3a>
20000c64:	4e3d      	ldr	r6, [pc, #244]	@ (20000d5c <dcd_event_handler+0x200>)
20000c66:	7833      	ldrb	r3, [r6, #0]
20000c68:	0758      	lsls	r0, r3, #29
20000c6a:	d437      	bmi.n	20000cdc <dcd_event_handler+0x180>
20000c6c:	78f3      	ldrb	r3, [r6, #3]
20000c6e:	07da      	lsls	r2, r3, #31
20000c70:	d5be      	bpl.n	20000bf0 <dcd_event_handler+0x94>
20000c72:	2303      	movs	r3, #3
20000c74:	2700      	movs	r7, #0
20000c76:	4a3a      	ldr	r2, [pc, #232]	@ (20000d60 <dcd_event_handler+0x204>)
20000c78:	7821      	ldrb	r1, [r4, #0]
20000c7a:	6816      	ldr	r6, [r2, #0]
20000c7c:	6862      	ldr	r2, [r4, #4]
20000c7e:	f88d 1004 	strb.w	r1, [sp, #4]
20000c82:	f88d 3005 	strb.w	r3, [sp, #5]
20000c86:	6973      	ldr	r3, [r6, #20]
20000c88:	f8cd 7006 	str.w	r7, [sp, #6]
20000c8c:	f8cd 700a 	str.w	r7, [sp, #10]
20000c90:	f8ad 700e 	strh.w	r7, [sp, #14]
20000c94:	9202      	str	r2, [sp, #8]
20000c96:	f3ef 8210 	mrs	r2, PRIMASK
20000c9a:	b672      	cpsid	i
20000c9c:	e8d3 0fcf 	ldaexb	r0, [r3]
20000ca0:	2101      	movs	r1, #1
20000ca2:	2800      	cmp	r0, #0
20000ca4:	d1fa      	bne.n	20000c9c <dcd_event_handler+0x140>
20000ca6:	e8c3 1f40 	strexb	r0, r1, [r3]
20000caa:	2800      	cmp	r0, #0
20000cac:	d1f6      	bne.n	20000c9c <dcd_event_handler+0x140>
20000cae:	f3bf 8f5f 	dmb	sy
20000cb2:	4630      	mov	r0, r6
20000cb4:	61b2      	str	r2, [r6, #24]
20000cb6:	a901      	add	r1, sp, #4
20000cb8:	f000 fa2a 	bl	20001110 <__tu_fifo_write_veneer>
20000cbc:	6973      	ldr	r3, [r6, #20]
20000cbe:	e8c3 7f8f 	stlb	r7, [r3]
20000cc2:	69b3      	ldr	r3, [r6, #24]
20000cc4:	f383 8810 	msr	PRIMASK, r3
20000cc8:	2800      	cmp	r0, #0
20000cca:	d082      	beq.n	20000bd2 <dcd_event_handler+0x76>
20000ccc:	462a      	mov	r2, r5
20000cce:	f89d 1005 	ldrb.w	r1, [sp, #5]
20000cd2:	f89d 0004 	ldrb.w	r0, [sp, #4]
20000cd6:	f000 fa0b 	bl	200010f0 <__tud_event_hook_cb_veneer>
20000cda:	e789      	b.n	20000bf0 <dcd_event_handler+0x94>
20000cdc:	7833      	ldrb	r3, [r6, #0]
20000cde:	f04f 0800 	mov.w	r8, #0
20000ce2:	f023 0304 	bic.w	r3, r3, #4
20000ce6:	7033      	strb	r3, [r6, #0]
20000ce8:	2305      	movs	r3, #5
20000cea:	4a1d      	ldr	r2, [pc, #116]	@ (20000d60 <dcd_event_handler+0x204>)
20000cec:	f88d 3005 	strb.w	r3, [sp, #5]
20000cf0:	6817      	ldr	r7, [r2, #0]
20000cf2:	7822      	ldrb	r2, [r4, #0]
20000cf4:	f8ad 800e 	strh.w	r8, [sp, #14]
20000cf8:	f88d 2004 	strb.w	r2, [sp, #4]
20000cfc:	697b      	ldr	r3, [r7, #20]
20000cfe:	f8cd 8006 	str.w	r8, [sp, #6]
20000d02:	f8cd 800a 	str.w	r8, [sp, #10]
20000d06:	f3ef 8210 	mrs	r2, PRIMASK
20000d0a:	b672      	cpsid	i
20000d0c:	e8d3 0fcf 	ldaexb	r0, [r3]
20000d10:	2101      	movs	r1, #1
20000d12:	2800      	cmp	r0, #0
20000d14:	d1fa      	bne.n	20000d0c <dcd_event_handler+0x1b0>
20000d16:	e8c3 1f40 	strexb	r0, r1, [r3]
20000d1a:	2800      	cmp	r0, #0
20000d1c:	d1f6      	bne.n	20000d0c <dcd_event_handler+0x1b0>
20000d1e:	f3bf 8f5f 	dmb	sy
20000d22:	4638      	mov	r0, r7
20000d24:	61ba      	str	r2, [r7, #24]
20000d26:	a901      	add	r1, sp, #4
20000d28:	f000 f9f2 	bl	20001110 <__tu_fifo_write_veneer>
20000d2c:	697b      	ldr	r3, [r7, #20]
20000d2e:	e8c3 8f8f 	stlb	r8, [r3]
20000d32:	69bb      	ldr	r3, [r7, #24]
20000d34:	f383 8810 	msr	PRIMASK, r3
20000d38:	b938      	cbnz	r0, 20000d4a <dcd_event_handler+0x1ee>
20000d3a:	f04f 23e0 	mov.w	r3, #3758153728	@ 0xe000e000
20000d3e:	f8d3 3df0 	ldr.w	r3, [r3, #3568]	@ 0xdf0
20000d42:	07d9      	lsls	r1, r3, #31
20000d44:	d592      	bpl.n	20000c6c <dcd_event_handler+0x110>
20000d46:	be00      	bkpt	0x0000
20000d48:	e790      	b.n	20000c6c <dcd_event_handler+0x110>
20000d4a:	462a      	mov	r2, r5
20000d4c:	f89d 1005 	ldrb.w	r1, [sp, #5]
20000d50:	f89d 0004 	ldrb.w	r0, [sp, #4]
20000d54:	f000 f9cc 	bl	200010f0 <__tud_event_hook_cb_veneer>
20000d58:	e788      	b.n	20000c6c <dcd_event_handler+0x110>
20000d5a:	bf00      	nop
20000d5c:	2000144c 	.word	0x2000144c
20000d60:	200014a4 	.word	0x200014a4
20000d64:	200019f2 	.word	0x200019f2
20000d68:	200019f0 	.word	0x200019f0
20000d6c:	20001348 	.word	0x20001348
20000d70:	10003fc4 	.word	0x10003fc4

20000d74 <__aeabi_drsub>:
20000d74:	f081 4100 	eor.w	r1, r1, #2147483648	@ 0x80000000
20000d78:	e002      	b.n	20000d80 <__adddf3>
20000d7a:	bf00      	nop

20000d7c <__aeabi_dsub>:
20000d7c:	f083 4300 	eor.w	r3, r3, #2147483648	@ 0x80000000

20000d80 <__adddf3>:
20000d80:	b530      	push	{r4, r5, lr}
20000d82:	ea4f 0441 	mov.w	r4, r1, lsl #1
20000d86:	ea4f 0543 	mov.w	r5, r3, lsl #1
20000d8a:	ea94 0f05 	teq	r4, r5
20000d8e:	bf08      	it	eq
20000d90:	ea90 0f02 	teqeq	r0, r2
20000d94:	bf1f      	itttt	ne
20000d96:	ea54 0c00 	orrsne.w	ip, r4, r0
20000d9a:	ea55 0c02 	orrsne.w	ip, r5, r2
20000d9e:	ea7f 5c64 	mvnsne.w	ip, r4, asr #21
20000da2:	ea7f 5c65 	mvnsne.w	ip, r5, asr #21
20000da6:	f000 80e2 	beq.w	20000f6e <__adddf3+0x1ee>
20000daa:	ea4f 5454 	mov.w	r4, r4, lsr #21
20000dae:	ebd4 5555 	rsbs	r5, r4, r5, lsr #21
20000db2:	bfb8      	it	lt
20000db4:	426d      	neglt	r5, r5
20000db6:	dd0c      	ble.n	20000dd2 <__adddf3+0x52>
20000db8:	442c      	add	r4, r5
20000dba:	ea80 0202 	eor.w	r2, r0, r2
20000dbe:	ea81 0303 	eor.w	r3, r1, r3
20000dc2:	ea82 0000 	eor.w	r0, r2, r0
20000dc6:	ea83 0101 	eor.w	r1, r3, r1
20000dca:	ea80 0202 	eor.w	r2, r0, r2
20000dce:	ea81 0303 	eor.w	r3, r1, r3
20000dd2:	2d36      	cmp	r5, #54	@ 0x36
20000dd4:	bf88      	it	hi
20000dd6:	bd30      	pophi	{r4, r5, pc}
20000dd8:	f011 4f00 	tst.w	r1, #2147483648	@ 0x80000000
20000ddc:	ea4f 3101 	mov.w	r1, r1, lsl #12
20000de0:	f44f 1c80 	mov.w	ip, #1048576	@ 0x100000
20000de4:	ea4c 3111 	orr.w	r1, ip, r1, lsr #12
20000de8:	d002      	beq.n	20000df0 <__adddf3+0x70>
20000dea:	4240      	negs	r0, r0
20000dec:	eb61 0141 	sbc.w	r1, r1, r1, lsl #1
20000df0:	f013 4f00 	tst.w	r3, #2147483648	@ 0x80000000
20000df4:	ea4f 3303 	mov.w	r3, r3, lsl #12
20000df8:	ea4c 3313 	orr.w	r3, ip, r3, lsr #12
20000dfc:	d002      	beq.n	20000e04 <__adddf3+0x84>
20000dfe:	4252      	negs	r2, r2
20000e00:	eb63 0343 	sbc.w	r3, r3, r3, lsl #1
20000e04:	ea94 0f05 	teq	r4, r5
20000e08:	f000 80a7 	beq.w	20000f5a <__adddf3+0x1da>
20000e0c:	f1a4 0401 	sub.w	r4, r4, #1
20000e10:	f1d5 0e20 	rsbs	lr, r5, #32
20000e14:	db0d      	blt.n	20000e32 <__adddf3+0xb2>
20000e16:	fa02 fc0e 	lsl.w	ip, r2, lr
20000e1a:	fa22 f205 	lsr.w	r2, r2, r5
20000e1e:	1880      	adds	r0, r0, r2
20000e20:	f141 0100 	adc.w	r1, r1, #0
20000e24:	fa03 f20e 	lsl.w	r2, r3, lr
20000e28:	1880      	adds	r0, r0, r2
20000e2a:	fa43 f305 	asr.w	r3, r3, r5
20000e2e:	4159      	adcs	r1, r3
20000e30:	e00e      	b.n	20000e50 <__adddf3+0xd0>
20000e32:	f1a5 0520 	sub.w	r5, r5, #32
20000e36:	f10e 0e20 	add.w	lr, lr, #32
20000e3a:	2a01      	cmp	r2, #1
20000e3c:	fa03 fc0e 	lsl.w	ip, r3, lr
20000e40:	bf28      	it	cs
20000e42:	f04c 0c02 	orrcs.w	ip, ip, #2
20000e46:	fa43 f305 	asr.w	r3, r3, r5
20000e4a:	18c0      	adds	r0, r0, r3
20000e4c:	eb51 71e3 	adcs.w	r1, r1, r3, asr #31
20000e50:	f001 4500 	and.w	r5, r1, #2147483648	@ 0x80000000
20000e54:	d507      	bpl.n	20000e66 <__adddf3+0xe6>
20000e56:	f04f 0e00 	mov.w	lr, #0
20000e5a:	f1dc 0c00 	rsbs	ip, ip, #0
20000e5e:	eb7e 0000 	sbcs.w	r0, lr, r0
20000e62:	eb6e 0101 	sbc.w	r1, lr, r1
20000e66:	f5b1 1f80 	cmp.w	r1, #1048576	@ 0x100000
20000e6a:	d31b      	bcc.n	20000ea4 <__adddf3+0x124>
20000e6c:	f5b1 1f00 	cmp.w	r1, #2097152	@ 0x200000
20000e70:	d30c      	bcc.n	20000e8c <__adddf3+0x10c>
20000e72:	0849      	lsrs	r1, r1, #1
20000e74:	ea5f 0030 	movs.w	r0, r0, rrx
20000e78:	ea4f 0c3c 	mov.w	ip, ip, rrx
20000e7c:	f104 0401 	add.w	r4, r4, #1
20000e80:	ea4f 5244 	mov.w	r2, r4, lsl #21
20000e84:	f512 0f80 	cmn.w	r2, #4194304	@ 0x400000
20000e88:	f080 809a 	bcs.w	20000fc0 <__adddf3+0x240>
20000e8c:	f1bc 4f00 	cmp.w	ip, #2147483648	@ 0x80000000
20000e90:	bf08      	it	eq
20000e92:	ea5f 0c50 	movseq.w	ip, r0, lsr #1
20000e96:	f150 0000 	adcs.w	r0, r0, #0
20000e9a:	eb41 5104 	adc.w	r1, r1, r4, lsl #20
20000e9e:	ea41 0105 	orr.w	r1, r1, r5
20000ea2:	bd30      	pop	{r4, r5, pc}
20000ea4:	ea5f 0c4c 	movs.w	ip, ip, lsl #1
20000ea8:	4140      	adcs	r0, r0
20000eaa:	eb41 0101 	adc.w	r1, r1, r1
20000eae:	3c01      	subs	r4, #1
20000eb0:	bf28      	it	cs
20000eb2:	f5b1 1f80 	cmpcs.w	r1, #1048576	@ 0x100000
20000eb6:	d2e9      	bcs.n	20000e8c <__adddf3+0x10c>
20000eb8:	f091 0f00 	teq	r1, #0
20000ebc:	bf04      	itt	eq
20000ebe:	4601      	moveq	r1, r0
20000ec0:	2000      	moveq	r0, #0
20000ec2:	fab1 f381 	clz	r3, r1
20000ec6:	bf08      	it	eq
20000ec8:	3320      	addeq	r3, #32
20000eca:	f1a3 030b 	sub.w	r3, r3, #11
20000ece:	f1b3 0220 	subs.w	r2, r3, #32
20000ed2:	da0c      	bge.n	20000eee <__adddf3+0x16e>
20000ed4:	320c      	adds	r2, #12
20000ed6:	dd08      	ble.n	20000eea <__adddf3+0x16a>
20000ed8:	f102 0c14 	add.w	ip, r2, #20
20000edc:	f1c2 020c 	rsb	r2, r2, #12
20000ee0:	fa01 f00c 	lsl.w	r0, r1, ip
20000ee4:	fa21 f102 	lsr.w	r1, r1, r2
20000ee8:	e00c      	b.n	20000f04 <__adddf3+0x184>
20000eea:	f102 0214 	add.w	r2, r2, #20
20000eee:	bfd8      	it	le
20000ef0:	f1c2 0c20 	rsble	ip, r2, #32
20000ef4:	fa01 f102 	lsl.w	r1, r1, r2
20000ef8:	fa20 fc0c 	lsr.w	ip, r0, ip
20000efc:	bfdc      	itt	le
20000efe:	ea41 010c 	orrle.w	r1, r1, ip
20000f02:	4090      	lslle	r0, r2
20000f04:	1ae4      	subs	r4, r4, r3
20000f06:	bfa2      	ittt	ge
20000f08:	eb01 5104 	addge.w	r1, r1, r4, lsl #20
20000f0c:	4329      	orrge	r1, r5
20000f0e:	bd30      	popge	{r4, r5, pc}
20000f10:	ea6f 0404 	mvn.w	r4, r4
20000f14:	3c1f      	subs	r4, #31
20000f16:	da1c      	bge.n	20000f52 <__adddf3+0x1d2>
20000f18:	340c      	adds	r4, #12
20000f1a:	dc0e      	bgt.n	20000f3a <__adddf3+0x1ba>
20000f1c:	f104 0414 	add.w	r4, r4, #20
20000f20:	f1c4 0220 	rsb	r2, r4, #32
20000f24:	fa20 f004 	lsr.w	r0, r0, r4
20000f28:	fa01 f302 	lsl.w	r3, r1, r2
20000f2c:	ea40 0003 	orr.w	r0, r0, r3
20000f30:	fa21 f304 	lsr.w	r3, r1, r4
20000f34:	ea45 0103 	orr.w	r1, r5, r3
20000f38:	bd30      	pop	{r4, r5, pc}
20000f3a:	f1c4 040c 	rsb	r4, r4, #12
20000f3e:	f1c4 0220 	rsb	r2, r4, #32
20000f42:	fa20 f002 	lsr.w	r0, r0, r2
20000f46:	fa01 f304 	lsl.w	r3, r1, r4
20000f4a:	ea40 0003 	orr.w	r0, r0, r3
20000f4e:	4629      	mov	r1, r5
20000f50:	bd30      	pop	{r4, r5, pc}
20000f52:	fa21 f004 	lsr.w	r0, r1, r4
20000f56:	4629      	mov	r1, r5
20000f58:	bd30      	pop	{r4, r5, pc}
20000f5a:	f094 0f00 	teq	r4, #0
20000f5e:	f483 1380 	eor.w	r3, r3, #1048576	@ 0x100000
20000f62:	bf06      	itte	eq
20000f64:	f481 1180 	eoreq.w	r1, r1, #1048576	@ 0x100000
20000f68:	3401      	addeq	r4, #1
20000f6a:	3d01      	subne	r5, #1
20000f6c:	e74e      	b.n	20000e0c <__adddf3+0x8c>
20000f6e:	ea7f 5c64 	mvns.w	ip, r4, asr #21
20000f72:	bf18      	it	ne
20000f74:	ea7f 5c65 	mvnsne.w	ip, r5, asr #21
20000f78:	d029      	beq.n	20000fce <__adddf3+0x24e>
20000f7a:	ea94 0f05 	teq	r4, r5
20000f7e:	bf08      	it	eq
20000f80:	ea90 0f02 	teqeq	r0, r2
20000f84:	d005      	beq.n	20000f92 <__adddf3+0x212>
20000f86:	ea54 0c00 	orrs.w	ip, r4, r0
20000f8a:	bf04      	itt	eq
20000f8c:	4619      	moveq	r1, r3
20000f8e:	4610      	moveq	r0, r2
20000f90:	bd30      	pop	{r4, r5, pc}
20000f92:	ea91 0f03 	teq	r1, r3
20000f96:	bf1e      	ittt	ne
20000f98:	2100      	movne	r1, #0
20000f9a:	2000      	movne	r0, #0
20000f9c:	bd30      	popne	{r4, r5, pc}
20000f9e:	ea5f 5c54 	movs.w	ip, r4, lsr #21
20000fa2:	d105      	bne.n	20000fb0 <__adddf3+0x230>
20000fa4:	0040      	lsls	r0, r0, #1
20000fa6:	4149      	adcs	r1, r1
20000fa8:	bf28      	it	cs
20000faa:	f041 4100 	orrcs.w	r1, r1, #2147483648	@ 0x80000000
20000fae:	bd30      	pop	{r4, r5, pc}
20000fb0:	f514 0480 	adds.w	r4, r4, #4194304	@ 0x400000
20000fb4:	bf3c      	itt	cc
20000fb6:	f501 1180 	addcc.w	r1, r1, #1048576	@ 0x100000
20000fba:	bd30      	popcc	{r4, r5, pc}
20000fbc:	f001 4500 	and.w	r5, r1, #2147483648	@ 0x80000000
20000fc0:	f045 41fe 	orr.w	r1, r5, #2130706432	@ 0x7f000000
20000fc4:	f441 0170 	orr.w	r1, r1, #15728640	@ 0xf00000
20000fc8:	f04f 0000 	mov.w	r0, #0
20000fcc:	bd30      	pop	{r4, r5, pc}
20000fce:	ea7f 5c64 	mvns.w	ip, r4, asr #21
20000fd2:	bf1a      	itte	ne
20000fd4:	4619      	movne	r1, r3
20000fd6:	4610      	movne	r0, r2
20000fd8:	ea7f 5c65 	mvnseq.w	ip, r5, asr #21
20000fdc:	bf1c      	itt	ne
20000fde:	460b      	movne	r3, r1
20000fe0:	4602      	movne	r2, r0
20000fe2:	ea50 3401 	orrs.w	r4, r0, r1, lsl #12
20000fe6:	bf06      	itte	eq
20000fe8:	ea52 3503 	orrseq.w	r5, r2, r3, lsl #12
20000fec:	ea91 0f03 	teqeq	r1, r3
20000ff0:	f441 2100 	orrne.w	r1, r1, #524288	@ 0x80000
20000ff4:	bd30      	pop	{r4, r5, pc}
20000ff6:	bf00      	nop

20000ff8 <__aeabi_ui2d>:
20000ff8:	f090 0f00 	teq	r0, #0
20000ffc:	bf04      	itt	eq
20000ffe:	2100      	moveq	r1, #0
20001000:	4770      	bxeq	lr
20001002:	b530      	push	{r4, r5, lr}
20001004:	f44f 6480 	mov.w	r4, #1024	@ 0x400
20001008:	f104 0432 	add.w	r4, r4, #50	@ 0x32
2000100c:	f04f 0500 	mov.w	r5, #0
20001010:	f04f 0100 	mov.w	r1, #0
20001014:	e750      	b.n	20000eb8 <__adddf3+0x138>
20001016:	bf00      	nop

20001018 <__aeabi_i2d>:
20001018:	f090 0f00 	teq	r0, #0
2000101c:	bf04      	itt	eq
2000101e:	2100      	moveq	r1, #0
20001020:	4770      	bxeq	lr
20001022:	b530      	push	{r4, r5, lr}
20001024:	f44f 6480 	mov.w	r4, #1024	@ 0x400
20001028:	f104 0432 	add.w	r4, r4, #50	@ 0x32
2000102c:	f010 4500 	ands.w	r5, r0, #2147483648	@ 0x80000000
20001030:	bf48      	it	mi
20001032:	4240      	negmi	r0, r0
20001034:	f04f 0100 	mov.w	r1, #0
20001038:	e73e      	b.n	20000eb8 <__adddf3+0x138>
2000103a:	bf00      	nop

2000103c <__aeabi_f2d>:
2000103c:	0042      	lsls	r2, r0, #1
2000103e:	ea4f 01e2 	mov.w	r1, r2, asr #3
20001042:	ea4f 0131 	mov.w	r1, r1, rrx
20001046:	ea4f 7002 	mov.w	r0, r2, lsl #28
2000104a:	bf1f      	itttt	ne
2000104c:	f012 437f 	andsne.w	r3, r2, #4278190080	@ 0xff000000
20001050:	f093 4f7f 	teqne	r3, #4278190080	@ 0xff000000
20001054:	f081 5160 	eorne.w	r1, r1, #939524096	@ 0x38000000
20001058:	4770      	bxne	lr
2000105a:	f032 427f 	bics.w	r2, r2, #4278190080	@ 0xff000000
2000105e:	bf08      	it	eq
20001060:	4770      	bxeq	lr
20001062:	f093 4f7f 	teq	r3, #4278190080	@ 0xff000000
20001066:	bf04      	itt	eq
20001068:	f441 2100 	orreq.w	r1, r1, #524288	@ 0x80000
2000106c:	4770      	bxeq	lr
2000106e:	b530      	push	{r4, r5, lr}
20001070:	f44f 7460 	mov.w	r4, #896	@ 0x380
20001074:	f001 4500 	and.w	r5, r1, #2147483648	@ 0x80000000
20001078:	f021 4100 	bic.w	r1, r1, #2147483648	@ 0x80000000
2000107c:	e71c      	b.n	20000eb8 <__adddf3+0x138>
2000107e:	bf00      	nop

20001080 <__aeabi_ul2d>:
20001080:	ea50 0201 	orrs.w	r2, r0, r1
20001084:	bf08      	it	eq
20001086:	4770      	bxeq	lr
20001088:	b530      	push	{r4, r5, lr}
2000108a:	f04f 0500 	mov.w	r5, #0
2000108e:	e00a      	b.n	200010a6 <__aeabi_l2d+0x16>

20001090 <__aeabi_l2d>:
20001090:	ea50 0201 	orrs.w	r2, r0, r1
20001094:	bf08      	it	eq
20001096:	4770      	bxeq	lr
20001098:	b530      	push	{r4, r5, lr}
2000109a:	f011 4500 	ands.w	r5, r1, #2147483648	@ 0x80000000
2000109e:	d502      	bpl.n	200010a6 <__aeabi_l2d+0x16>
200010a0:	4240      	negs	r0, r0
200010a2:	eb61 0141 	sbc.w	r1, r1, r1, lsl #1
200010a6:	f44f 6480 	mov.w	r4, #1024	@ 0x400
200010aa:	f104 0432 	add.w	r4, r4, #50	@ 0x32
200010ae:	ea5f 5c91 	movs.w	ip, r1, lsr #22
200010b2:	f43f aed8 	beq.w	20000e66 <__adddf3+0xe6>
200010b6:	f04f 0203 	mov.w	r2, #3
200010ba:	ea5f 0cdc 	movs.w	ip, ip, lsr #3
200010be:	bf18      	it	ne
200010c0:	3203      	addne	r2, #3
200010c2:	ea5f 0cdc 	movs.w	ip, ip, lsr #3
200010c6:	bf18      	it	ne
200010c8:	3203      	addne	r2, #3
200010ca:	eb02 02dc 	add.w	r2, r2, ip, lsr #3
200010ce:	f1c2 0320 	rsb	r3, r2, #32
200010d2:	fa00 fc03 	lsl.w	ip, r0, r3
200010d6:	fa20 f002 	lsr.w	r0, r0, r2
200010da:	fa01 fe03 	lsl.w	lr, r1, r3
200010de:	ea40 000e 	orr.w	r0, r0, lr
200010e2:	fa21 f102 	lsr.w	r1, r1, r2
200010e6:	4414      	add	r4, r2
200010e8:	e6bd      	b.n	20000e66 <__adddf3+0xe6>
200010ea:	bf00      	nop
200010ec:	0000      	movs	r0, r0
	...

200010f0 <__tud_event_hook_cb_veneer>:
200010f0:	f85f f000 	ldr.w	pc, [pc]	@ 200010f4 <__tud_event_hook_cb_veneer+0x4>
200010f4:	10002815 	.word	0x10002815

200010f8 <__panic_veneer>:
200010f8:	f85f f000 	ldr.w	pc, [pc]	@ 200010fc <__panic_veneer+0x4>
200010fc:	10000665 	.word	0x10000665

20001100 <__memset_veneer>:
20001100:	f85f f000 	ldr.w	pc, [pc]	@ 20001104 <__memset_veneer+0x4>
20001104:	10003b49 	.word	0x10003b49

20001108 <__time_us_64_veneer>:
20001108:	f85f f000 	ldr.w	pc, [pc]	@ 2000110c <__time_us_64_veneer+0x4>
2000110c:	10001325 	.word	0x10001325

20001110 <__tu_fifo_write_veneer>:
20001110:	f85f f000 	ldr.w	pc, [pc]	@ 20001114 <__tu_fifo_write_veneer+0x4>
20001114:	10003a09 	.word	0x10003a09

20001118 <__best_effort_wfe_or_timeout_veneer>:
20001118:	f85f f000 	ldr.w	pc, [pc]	@ 2000111c <__best_effort_wfe_or_timeout_veneer+0x4>
2000111c:	1000121d 	.word	0x1000121d

20001120 <string_desc_arr>:
20001120:	10003ee0 10003dd4 10003ddc 00000000     .>...=...=......

20001130 <striped_spin_lock_num>:
20001130:	00000010                                ....

20001134 <irq_handler_chain_slots>:
20001134:	00000000 	.word	0x00000000
20001138:	00010000 	.word	0x00010000
	...
20001144:	00020000 	.word	0x00020000
	...
20001150:	00030000 	.word	0x00030000
	...
2000115c:	00ff0000 	.word	0x00ff0000
20001160:	00000000 	.word	0x00000000

20001164 <irq_handler_chain_first_slot>:
20001164:	b501      	push	{r0, lr}
20001166:	6848      	ldr	r0, [r1, #4]
20001168:	3101      	adds	r1, #1
2000116a:	468e      	mov	lr, r1
2000116c:	4700      	bx	r0

2000116e <irq_handler_chain_remove_tail>:
2000116e:	4670      	mov	r0, lr
20001170:	3809      	subs	r0, #9
20001172:	4901      	ldr	r1, [pc, #4]	@ (20001178 <irq_handler_chain_remove_tail+0xa>)
20001174:	4788      	blx	r1
20001176:	bd01      	pop	{r0, pc}
20001178:	10000a81 	.word	0x10000a81

2000117c <default_alarm_pool>:
	...
20001190:	200011c8                                ... 

20001194 <i2c0_inst>:
20001194:	40090000 00000000                       ...@....

2000119c <_usbd_qdef>:
2000119c:	200014a8 000c0010 00000000 00000000     ... ............
	...

200011b8 <_usbd_rhport>:
200011b8:	000000ff                                ....

200011bc <print_mutex>:
	...
